(dp1
S'nuoABCEFGHIJKLMN'
p2
(dp3
S'Campylobacter_jejuni'
p4
(lp5
S'1'
aS'3'
aS'1'
aS'1'
aS'0'
asS'Bordetella_pertussis'
p6
(lp7
S'1'
aS'0'
aS'0'
aS'2'
aS'0'
asS'Xanthomonas_axonopodis'
p8
(lp9
S'1'
aS'2'
aS'1'
aS'2'
aS'0'
asS'Escherichia_coli'
p10
(lp11
S'0'
aS'0'
aS'0'
aS'0'
aS'0'
asS'Pseudomonas_syringae'
p12
(lp13
S'0'
aS'0'
aS'0'
aS'0'
aS'0'
asS'Brucella_suis'
p14
(lp15
S'1'
aS'1'
aS'1'
aS'2'
aS'0'
asS'Pseudomonas_putida'
p16
(lp17
S'0'
aS'0'
aS'0'
aS'0'
aS'0'
asS'Wolinella_succinogenes'
p18
(lp19
S'2'
aS'2'
aS'2'
aS'2'
aS'0'
asS'Caulobacter_crescentus'
p20
(lp21
S'1'
aS'1'
aS'1'
aS'0'
aS'0'
asS'Agrobacterium_tumefaciens'
p22
(lp23
S'1'
aS'1'
aS'0'
aS'0'
aS'0'
asS'Bradyrhizobium_japonicum'
p24
(lp25
S'1'
aS'1'
aS'1'
aS'1'
aS'0'
asS'Brucella_melitensis'
p26
(lp27
S'1'
aS'1'
aS'1'
aS'2'
aS'0'
asS'Shewanella_oneidensis'
p28
(lp29
S'2'
aS'0'
aS'2'
aS'0'
aS'1'
asS'Pseudomonas_aeruginosa'
p30
(lp31
S'0'
aS'0'
aS'0'
aS'0'
aS'0'
asS'Xanthomonas_campestris'
p32
(lp33
S'1'
aS'1'
aS'0'
aS'2'
aS'0'
asS'Nitrosomonas_europaea'
p34
(lp35
S'1'
aS'0'
aS'0'
aS'2'
aS'0'
asS'Buchnera_aphidicola'
p36
(lp37
S'0'
aS'0'
aS'0'
aS'0'
aS'0'
asS'Mesorhizobium_loti'
p38
(lp39
S'1'
aS'1'
aS'1'
aS'2'
aS'0'
asS'Chromobacterium_violaceum'
p40
(lp41
S'1'
aS'0'
aS'0'
aS'2'
aS'0'
asS'Shigella_flexneri'
p42
(lp43
S'0'
aS'0'
aS'0'
aS'0'
aS'0'
asS'Bordetella_bronchiseptica'
p44
(lp45
S'1'
aS'1'
aS'1'
aS'2'
aS'0'
asS'Bordetella_parapertussis'
p46
(lp47
S'1'
aS'1'
aS'1'
aS'2'
aS'0'
asS'Ralstonia_solanacearum'
p48
(lp49
S'1'
aS'0'
aS'0'
aS'2'
aS'0'
asS'Yersinia_pestis'
p50
(lp51
S'0'
aS'0'
aS'0'
aS'0'
aS'0'
asS'Candidatus_Blochmannia'
p52
(lp53
S'0'
aS'0'
aS'0'
aS'0'
aS'0'
asS'Neisseria_meningitidis'
p54
(lp55
S'1'
aS'1'
aS'3'
aS'2'
aS'0'
asS'Salmonella_enterica'
p56
(lp57
S'0'
aS'0'
aS'0'
aS'0'
aS'0'
asS'Sinorhizobium_meliloti'
p58
(lp59
S'1'
aS'2'
aS'2'
aS'1'
aS'0'
asS'Helicobacter_hepaticus'
p60
(lp61
S'1'
aS'3'
aS'1'
aS'1'
aS'0'
asS'Xylella_fastidiosa'
p62
(lp63
S'1'
aS'2'
aS'1'
aS'2'
aS'0'
assS'ydgK-rsxABCDGE-nth'
p64
(dp65
S'Bordetella_pertussis'
p66
(lp67
S'0'
aS'5'
aS'1'
aS'0'
aS'1'
asS'Vibrio_cholerae'
p68
(lp69
S'3'
aS'1'
aS'1'
aS'3'
aS'0'
asS'Escherichia_coli'
p70
(lp71
S'0'
aS'0'
aS'0'
aS'0'
aS'0'
asS'Buchnera_aphidicola'
p72
(lp73
S'0'
aS'1'
aS'0'
aS'0'
aS'0'
asS'Chromobacterium_violaceum'
p74
(lp75
S'0'
aS'5'
aS'1'
aS'0'
aS'0'
asS'Bordetella_bronchiseptica'
p76
(lp77
S'0'
aS'5'
aS'1'
aS'0'
aS'1'
asS'Pasteurella_multocida'
p78
(lp79
S'0'
aS'1'
aS'0'
aS'0'
aS'0'
asS'Salmonella_enterica'
p80
(lp81
S'0'
aS'0'
aS'0'
aS'0'
aS'0'
asS'Pseudomonas_putida'
p82
(lp83
S'0'
aS'2'
aS'3'
aS'0'
aS'2'
asS'Shigella_flexneri'
p84
(lp85
S'0'
aS'0'
aS'0'
aS'0'
aS'0'
asS'Bordetella_parapertussis'
p86
(lp87
S'0'
aS'5'
aS'1'
aS'0'
aS'1'
asS'Ralstonia_solanacearum'
p88
(lp89
S'0'
aS'6'
aS'0'
aS'0'
aS'0'
asS'Vibrio_parahaemolyticus'
p90
(lp91
S'0'
aS'1'
aS'0'
aS'0'
aS'0'
asS'Pseudomonas_syringae'
p92
(lp93
S'0'
aS'5'
aS'1'
aS'0'
aS'0'
asS'Yersinia_pestis'
p94
(lp95
S'0'
aS'0'
aS'1'
aS'0'
aS'0'
asS'Nitrosomonas_europaea'
p96
(lp97
S'0'
aS'2'
aS'3'
aS'0'
aS'1'
asS'Vibrio_vulnificus'
p98
(lp99
S'0'
aS'1'
aS'0'
aS'0'
aS'0'
asS'Shewanella_oneidensis'
p100
(lp101
S'0'
aS'1'
aS'0'
aS'0'
aS'0'
asS'Haemophilus_influenzae'
p102
(lp103
S'0'
aS'1'
aS'0'
aS'0'
aS'0'
asS'Pseudomonas_aeruginosa'
p104
(lp105
S'0'
aS'1'
aS'0'
aS'0'
aS'0'
asS'Neisseria_meningitidis'
p106
(lp107
S'0'
aS'2'
aS'4'
aS'0'
aS'1'
assS'yceD-rpmF-plsX-fabHDG-acpP-fabF'
p108
(dp109
S'Campylobacter_jejuni'
p110
(lp111
S'0'
aS'2'
aS'3'
aS'0'
aS'1'
asS'Bordetella_pertussis'
p112
(lp113
S'0'
aS'0'
aS'0'
aS'0'
aS'0'
asS'Xanthomonas_axonopodis'
p114
(lp115
S'0'
aS'2'
aS'1'
aS'0'
aS'0'
asS'Buchnera_aphidicola'
p116
(lp117
S'0'
aS'4'
aS'2'
aS'0'
aS'0'
asS'Pseudomonas_syringae'
p118
(lp119
S'0'
aS'0'
aS'1'
aS'0'
aS'1'
asS'Brucella_suis'
p120
(lp121
S'0'
aS'1'
aS'2'
aS'0'
aS'1'
asS'Vibrio_vulnificus'
p122
(lp123
S'2'
aS'0'
aS'1'
aS'0'
aS'1'
asS'Pseudomonas_putida'
p124
(lp125
S'0'
aS'0'
aS'1'
aS'0'
aS'1'
asS'Wolinella_succinogenes'
p126
(lp127
S'0'
aS'2'
aS'2'
aS'0'
aS'1'
asS'Caulobacter_crescentus'
p128
(lp129
S'0'
aS'1'
aS'3'
aS'0'
aS'0'
asS'Candidatus_Blochmannia'
p130
(lp131
S'0'
aS'1'
aS'1'
aS'0'
aS'0'
asS'Bradyrhizobium_japonicum'
p132
(lp133
S'0'
aS'1'
aS'2'
aS'0'
aS'1'
asS'Brucella_melitensis'
p134
(lp135
S'1'
aS'1'
aS'2'
aS'0'
aS'1'
asS'Shewanella_oneidensis'
p136
(lp137
S'0'
aS'0'
aS'0'
aS'0'
aS'0'
asS'Pseudomonas_aeruginosa'
p138
(lp139
S'1'
aS'0'
aS'1'
aS'1'
aS'1'
asS'Helicobacter_hepaticus'
p140
(lp141
S'0'
aS'2'
aS'3'
aS'0'
aS'2'
asS'Agrobacterium_tumefaciens'
p142
(lp143
S'0'
aS'1'
aS'2'
aS'0'
aS'0'
asS'Vibrio_cholerae'
p144
(lp145
S'0'
aS'0'
aS'0'
aS'0'
aS'0'
asS'Escherichia_coli'
p146
(lp147
S'0'
aS'0'
aS'0'
aS'0'
aS'0'
asS'Mesorhizobium_loti'
p148
(lp149
S'0'
aS'1'
aS'2'
aS'0'
aS'1'
asS'Chromobacterium_violaceum'
p150
(lp151
S'0'
aS'0'
aS'0'
aS'0'
aS'0'
asS'Haemophilus_influenzae'
p152
(lp153
S'0'
aS'1'
aS'2'
aS'0'
aS'0'
asS'Pasteurella_multocida'
p154
(lp155
S'0'
aS'0'
aS'1'
aS'0'
aS'0'
asS'Bordetella_bronchiseptica'
p156
(lp157
S'0'
aS'0'
aS'0'
aS'0'
aS'0'
asS'Bordetella_parapertussis'
p158
(lp159
S'0'
aS'0'
aS'0'
aS'0'
aS'0'
asS'Xanthomonas_campestris'
p160
(lp161
S'0'
aS'1'
aS'1'
aS'0'
aS'0'
asS'Ralstonia_solanacearum'
p162
(lp163
S'0'
aS'0'
aS'0'
aS'0'
aS'0'
asS'Vibrio_parahaemolyticus'
p164
(lp165
S'0'
aS'0'
aS'0'
aS'0'
aS'0'
asS'Yersinia_pestis'
p166
(lp167
S'0'
aS'0'
aS'0'
aS'0'
aS'0'
asS'Neisseria_meningitidis'
p168
(lp169
S'1'
aS'0'
aS'5'
aS'0'
aS'1'
asS'Salmonella_enterica'
p170
(lp171
S'0'
aS'0'
aS'0'
aS'0'
aS'0'
asS'Sinorhizobium_meliloti'
p172
(lp173
S'0'
aS'1'
aS'2'
aS'0'
aS'1'
asS'Shigella_flexneri'
p174
(lp175
S'0'
aS'0'
aS'0'
aS'0'
aS'0'
asS'Nitrosomonas_europaea'
p176
(lp177
S'0'
aS'0'
aS'0'
aS'0'
aS'0'
asS'Xylella_fastidiosa'
p178
(lp179
S'0'
aS'1'
aS'1'
aS'0'
aS'0'
assS'lsrACDBFG-tam'
p180
(dp181
S'Campylobacter_jejuni'
p182
(lp183
S'1'
aS'5'
aS'1'
aS'1'
aS'1'
asS'Bordetella_pertussis'
p184
(lp185
S'1'
aS'5'
aS'1'
aS'1'
aS'1'
asS'Xanthomonas_axonopodis'
p186
(lp187
S'1'
aS'5'
aS'1'
aS'1'
aS'0'
asS'Buchnera_aphidicola'
p188
(lp189
S'1'
aS'6'
aS'0'
aS'1'
aS'0'
asS'Pseudomonas_syringae'
p190
(lp191
S'0'
aS'2'
aS'3'
aS'0'
aS'2'
asS'Brucella_suis'
p192
(lp193
S'2'
aS'2'
aS'3'
aS'0'
aS'1'
asS'Vibrio_vulnificus'
p194
(lp195
S'1'
aS'6'
aS'0'
aS'1'
aS'0'
asS'Pseudomonas_putida'
p196
(lp197
S'0'
aS'2'
aS'3'
aS'0'
aS'0'
asS'Wolinella_succinogenes'
p198
(lp199
S'1'
aS'6'
aS'0'
aS'1'
aS'0'
asS'Caulobacter_crescentus'
p200
(lp201
S'0'
aS'3'
aS'2'
aS'0'
aS'1'
asS'Bradyrhizobium_japonicum'
p202
(lp203
S'1'
aS'2'
aS'2'
aS'0'
aS'0'
asS'Brucella_melitensis'
p204
(lp205
S'1'
aS'2'
aS'3'
aS'1'
aS'0'
asS'Shewanella_oneidensis'
p206
(lp207
S'1'
aS'5'
aS'1'
aS'1'
aS'0'
asS'Pseudomonas_aeruginosa'
p208
(lp209
S'0'
aS'3'
aS'2'
aS'0'
aS'1'
asS'Helicobacter_hepaticus'
p210
(lp211
S'1'
aS'6'
aS'0'
aS'1'
aS'0'
asS'Agrobacterium_tumefaciens'
p212
(lp213
S'1'
aS'2'
aS'2'
aS'0'
aS'1'
asS'Vibrio_cholerae'
p214
(lp215
S'0'
aS'3'
aS'2'
aS'0'
aS'1'
asS'Escherichia_coli'
p216
(lp217
S'0'
aS'0'
aS'0'
aS'0'
aS'0'
asS'Mesorhizobium_loti'
p218
(lp219
S'1'
aS'1'
aS'2'
aS'2'
aS'1'
asS'Chromobacterium_violaceum'
p220
(lp221
S'0'
aS'3'
aS'2'
aS'1'
aS'0'
asS'Haemophilus_influenzae'
p222
(lp223
S'1'
aS'3'
aS'2'
aS'0'
aS'1'
asS'Pasteurella_multocida'
p224
(lp225
S'0'
aS'1'
aS'0'
aS'0'
aS'0'
asS'Bordetella_bronchiseptica'
p226
(lp227
S'2'
aS'3'
aS'2'
aS'2'
aS'1'
asS'Bordetella_parapertussis'
p228
(lp229
S'0'
aS'3'
aS'2'
aS'1'
aS'0'
asS'Ralstonia_solanacearum'
p230
(lp231
S'0'
aS'3'
aS'2'
aS'0'
aS'0'
asS'Vibrio_parahaemolyticus'
p232
(lp233
S'1'
aS'4'
aS'2'
aS'1'
aS'0'
asS'Yersinia_pestis'
p234
(lp235
S'0'
aS'0'
aS'1'
aS'0'
aS'1'
asS'Salmonella_enterica'
p236
(lp237
S'0'
aS'0'
aS'1'
aS'0'
aS'1'
asS'Sinorhizobium_meliloti'
p238
(lp239
S'1'
aS'2'
aS'1'
aS'2'
aS'1'
asS'Shigella_flexneri'
p240
(lp241
S'0'
aS'1'
aS'1'
aS'0'
aS'1'
assS'lptAB-rpoN-hpf-ptsN-yhbJ-npr'
p242
(dp243
S'Campylobacter_jejuni'
p244
(lp245
S'0'
aS'5'
aS'0'
aS'0'
aS'0'
asS'Bordetella_pertussis'
p246
(lp247
S'0'
aS'1'
aS'4'
aS'0'
aS'2'
asS'Xanthomonas_axonopodis'
p248
(lp249
S'0'
aS'0'
aS'2'
aS'0'
aS'0'
asS'Buchnera_aphidicola'
p250
(lp251
S'1'
aS'4'
aS'2'
aS'1'
aS'1'
asS'Pseudomonas_syringae'
p252
(lp253
S'0'
aS'0'
aS'0'
aS'0'
aS'0'
asS'Brucella_suis'
p254
(lp255
S'0'
aS'4'
aS'1'
aS'0'
aS'0'
asS'Vibrio_vulnificus'
p256
(lp257
S'0'
aS'0'
aS'0'
aS'0'
aS'0'
asS'Pseudomonas_putida'
p258
(lp259
S'0'
aS'0'
aS'0'
aS'0'
aS'0'
asS'Wolinella_succinogenes'
p260
(lp261
S'0'
aS'5'
aS'0'
aS'0'
aS'0'
asS'Caulobacter_crescentus'
p262
(lp263
S'0'
aS'3'
aS'2'
aS'0'
aS'1'
asS'Candidatus_Blochmannia'
p264
(lp265
S'0'
aS'4'
aS'1'
aS'0'
aS'1'
asS'Bradyrhizobium_japonicum'
p266
(lp267
S'0'
aS'2'
aS'1'
aS'0'
aS'0'
asS'Brucella_melitensis'
p268
(lp269
S'0'
aS'4'
aS'1'
aS'0'
aS'0'
asS'Shewanella_oneidensis'
p270
(lp271
S'0'
aS'0'
aS'0'
aS'0'
aS'0'
asS'Pseudomonas_aeruginosa'
p272
(lp273
S'0'
aS'0'
aS'0'
aS'0'
aS'0'
asS'Neisseria_meningitidis'
p274
(lp275
S'0'
aS'1'
aS'4'
aS'0'
aS'1'
asS'Agrobacterium_tumefaciens'
p276
(lp277
S'0'
aS'1'
aS'1'
aS'0'
aS'0'
asS'Vibrio_cholerae'
p278
(lp279
S'0'
aS'0'
aS'0'
aS'0'
aS'0'
asS'Escherichia_coli'
p280
(lp281
S'0'
aS'0'
aS'0'
aS'0'
aS'0'
asS'Mesorhizobium_loti'
p282
(lp283
S'0'
aS'2'
aS'2'
aS'0'
aS'0'
asS'Chromobacterium_violaceum'
p284
(lp285
S'0'
aS'0'
aS'2'
aS'0'
aS'0'
asS'Haemophilus_influenzae'
p286
(lp287
S'0'
aS'1'
aS'2'
aS'0'
aS'1'
asS'Pasteurella_multocida'
p288
(lp289
S'0'
aS'1'
aS'2'
aS'0'
aS'1'
asS'Bordetella_bronchiseptica'
p290
(lp291
S'0'
aS'0'
aS'3'
aS'0'
aS'1'
asS'Bordetella_parapertussis'
p292
(lp293
S'0'
aS'0'
aS'3'
aS'0'
aS'1'
asS'Xanthomonas_campestris'
p294
(lp295
S'0'
aS'0'
aS'2'
aS'0'
aS'0'
asS'Ralstonia_solanacearum'
p296
(lp297
S'0'
aS'0'
aS'2'
aS'0'
aS'1'
asS'Vibrio_parahaemolyticus'
p298
(lp299
S'0'
aS'0'
aS'0'
aS'0'
aS'0'
asS'Yersinia_pestis'
p300
(lp301
S'0'
aS'0'
aS'1'
aS'0'
aS'0'
asS'Helicobacter_hepaticus'
p302
(lp303
S'0'
aS'5'
aS'0'
aS'0'
aS'0'
asS'Salmonella_enterica'
p304
(lp305
S'0'
aS'0'
aS'0'
aS'0'
aS'0'
asS'Sinorhizobium_meliloti'
p306
(lp307
S'0'
aS'3'
aS'2'
aS'0'
aS'0'
asS'Shigella_flexneri'
p308
(lp309
S'0'
aS'0'
aS'0'
aS'0'
aS'0'
asS'Nitrosomonas_europaea'
p310
(lp311
S'0'
aS'0'
aS'2'
aS'0'
aS'1'
asS'Xylella_fastidiosa'
p312
(lp313
S'0'
aS'1'
aS'2'
aS'0'
aS'0'
assS'pspABCDE'
p314
(dp315
S'Vibrio_cholerae'
p316
(lp317
S'0'
aS'2'
aS'0'
aS'0'
aS'0'
asS'Yersinia_pestis'
p318
(lp319
S'0'
aS'1'
aS'1'
aS'0'
aS'0'
asS'Escherichia_coli'
p320
(lp321
S'0'
aS'0'
aS'0'
aS'0'
aS'0'
asS'Vibrio_vulnificus'
p322
(lp323
S'0'
aS'2'
aS'0'
aS'0'
aS'0'
asS'Shewanella_oneidensis'
p324
(lp325
S'0'
aS'1'
aS'1'
aS'0'
aS'0'
asS'Shigella_flexneri'
p326
(lp327
S'0'
aS'0'
aS'0'
aS'0'
aS'0'
asS'Salmonella_enterica'
p328
(lp329
S'0'
aS'0'
aS'0'
aS'0'
aS'0'
asS'Vibrio_parahaemolyticus'
p330
(lp331
S'0'
aS'2'
aS'0'
aS'0'
aS'0'
assS'metY-rimP-nusA-infB-rbfA-truB-rpsO-pnp'
p332
(dp333
S'Campylobacter_jejuni'
p334
(lp335
S'0'
aS'2'
aS'4'
aS'0'
aS'0'
asS'Bordetella_pertussis'
p336
(lp337
S'1'
aS'1'
aS'1'
aS'1'
aS'0'
asS'Xanthomonas_axonopodis'
p338
(lp339
S'0'
aS'1'
aS'0'
aS'0'
aS'0'
asS'Buchnera_aphidicola'
p340
(lp341
S'0'
aS'2'
aS'0'
aS'0'
aS'0'
asS'Pseudomonas_syringae'
p342
(lp343
S'0'
aS'1'
aS'0'
aS'0'
aS'0'
asS'Brucella_suis'
p344
(lp345
S'0'
aS'2'
aS'2'
aS'0'
aS'0'
asS'Vibrio_vulnificus'
p346
(lp347
S'0'
aS'1'
aS'2'
aS'0'
aS'0'
asS'Pseudomonas_putida'
p348
(lp349
S'0'
aS'2'
aS'1'
aS'0'
aS'0'
asS'Wolinella_succinogenes'
p350
(lp351
S'0'
aS'2'
aS'4'
aS'0'
aS'0'
asS'Caulobacter_crescentus'
p352
(lp353
S'1'
aS'1'
aS'2'
aS'1'
aS'0'
asS'Bradyrhizobium_japonicum'
p354
(lp355
S'1'
aS'2'
aS'2'
aS'1'
aS'0'
asS'Brucella_melitensis'
p356
(lp357
S'0'
aS'2'
aS'2'
aS'0'
aS'0'
asS'Shewanella_oneidensis'
p358
(lp359
S'0'
aS'2'
aS'2'
aS'0'
aS'0'
asS'Pseudomonas_aeruginosa'
p360
(lp361
S'0'
aS'1'
aS'0'
aS'0'
aS'0'
asS'Neisseria_meningitidis'
p362
(lp363
S'0'
aS'1'
aS'3'
aS'0'
aS'0'
asS'Agrobacterium_tumefaciens'
p364
(lp365
S'0'
aS'2'
aS'1'
aS'0'
aS'0'
asS'Vibrio_cholerae'
p366
(lp367
S'0'
aS'1'
aS'0'
aS'0'
aS'0'
asS'Escherichia_coli'
p368
(lp369
S'0'
aS'1'
aS'0'
aS'0'
aS'0'
asS'Mesorhizobium_loti'
p370
(lp371
S'0'
aS'2'
aS'3'
aS'0'
aS'0'
asS'Chromobacterium_violaceum'
p372
(lp373
S'0'
aS'1'
aS'0'
aS'0'
aS'0'
asS'Haemophilus_influenzae'
p374
(lp375
S'0'
aS'1'
aS'3'
aS'0'
aS'1'
asS'Pasteurella_multocida'
p376
(lp377
S'0'
aS'1'
aS'3'
aS'0'
aS'1'
asS'Bordetella_bronchiseptica'
p378
(lp379
S'1'
aS'1'
aS'1'
aS'1'
aS'0'
asS'Bordetella_parapertussis'
p380
(lp381
S'1'
aS'1'
aS'1'
aS'1'
aS'1'
asS'Xanthomonas_campestris'
p382
(lp383
S'0'
aS'1'
aS'0'
aS'0'
aS'0'
asS'Ralstonia_solanacearum'
p384
(lp385
S'0'
aS'1'
aS'1'
aS'0'
aS'1'
asS'Vibrio_parahaemolyticus'
p386
(lp387
S'0'
aS'1'
aS'0'
aS'0'
aS'0'
asS'Yersinia_pestis'
p388
(lp389
S'0'
aS'1'
aS'1'
aS'0'
aS'0'
asS'Candidatus_Blochmannia'
p390
(lp391
S'0'
aS'2'
aS'0'
aS'0'
aS'0'
asS'Salmonella_enterica'
p392
(lp393
S'0'
aS'1'
aS'0'
aS'0'
aS'0'
asS'Sinorhizobium_meliloti'
p394
(lp395
S'1'
aS'2'
aS'3'
aS'1'
aS'0'
asS'Shigella_flexneri'
p396
(lp397
S'0'
aS'1'
aS'0'
aS'0'
aS'0'
asS'Nitrosomonas_europaea'
p398
(lp399
S'0'
aS'1'
aS'1'
aS'0'
aS'1'
asS'Xylella_fastidiosa'
p400
(lp401
S'0'
aS'1'
aS'0'
aS'0'
aS'0'
assS'tdcABCDEFG'
p402
(dp403
S'Campylobacter_jejuni'
p404
(lp405
S'0'
aS'2'
aS'3'
aS'0'
aS'2'
asS'Vibrio_cholerae'
p406
(lp407
S'0'
aS'0'
aS'5'
aS'0'
aS'2'
asS'Escherichia_coli'
p408
(lp409
S'1'
aS'0'
aS'0'
aS'0'
aS'0'
asS'Mesorhizobium_loti'
p410
(lp411
S'1'
aS'2'
aS'4'
aS'1'
aS'1'
asS'Chromobacterium_violaceum'
p412
(lp413
S'0'
aS'0'
aS'5'
aS'0'
aS'3'
asS'Haemophilus_influenzae'
p414
(lp415
S'0'
aS'0'
aS'5'
aS'0'
aS'2'
asS'Pasteurella_multocida'
p416
(lp417
S'0'
aS'0'
aS'5'
aS'0'
aS'2'
asS'Salmonella_enterica'
p418
(lp419
S'1'
aS'0'
aS'3'
aS'0'
aS'1'
asS'Pseudomonas_putida'
p420
(lp421
S'1'
aS'2'
aS'4'
aS'1'
aS'2'
asS'Ralstonia_solanacearum'
p422
(lp423
S'1'
aS'4'
aS'2'
aS'1'
aS'1'
asS'Vibrio_parahaemolyticus'
p424
(lp425
S'1'
aS'0'
aS'5'
aS'0'
aS'2'
asS'Shigella_flexneri'
p426
(lp427
S'1'
aS'0'
aS'0'
aS'0'
aS'0'
asS'Vibrio_vulnificus'
p428
(lp429
S'0'
aS'0'
aS'5'
aS'0'
aS'1'
asS'Pseudomonas_aeruginosa'
p430
(lp431
S'1'
aS'2'
aS'3'
aS'1'
aS'2'
asS'Pseudomonas_syringae'
p432
(lp433
S'1'
aS'1'
aS'5'
aS'1'
aS'2'
assS'ssuEADCB'
p434
(dp435
S'Campylobacter_jejuni'
p436
(lp437
S'0'
aS'3'
aS'0'
aS'0'
aS'0'
asS'Bordetella_pertussis'
p438
(lp439
S'0'
aS'2'
aS'0'
aS'0'
aS'0'
asS'Xanthomonas_axonopodis'
p440
(lp441
S'0'
aS'0'
aS'0'
aS'1'
aS'0'
asS'Buchnera_aphidicola'
p442
(lp443
S'1'
aS'4'
aS'0'
aS'1'
aS'0'
asS'Pseudomonas_syringae'
p444
(lp445
S'0'
aS'0'
aS'2'
aS'0'
aS'1'
asS'Brucella_suis'
p446
(lp447
S'0'
aS'2'
aS'1'
aS'0'
aS'0'
asS'Vibrio_vulnificus'
p448
(lp449
S'1'
aS'3'
aS'1'
aS'1'
aS'1'
asS'Pseudomonas_putida'
p450
(lp451
S'0'
aS'0'
aS'0'
aS'0'
aS'0'
asS'Wolinella_succinogenes'
p452
(lp453
S'0'
aS'3'
aS'0'
aS'0'
aS'0'
asS'Caulobacter_crescentus'
p454
(lp455
S'0'
aS'1'
aS'1'
aS'0'
aS'1'
asS'Bradyrhizobium_japonicum'
p456
(lp457
S'0'
aS'1'
aS'0'
aS'0'
aS'0'
asS'Brucella_melitensis'
p458
(lp459
S'0'
aS'2'
aS'1'
aS'0'
aS'0'
asS'Shewanella_oneidensis'
p460
(lp461
S'1'
aS'4'
aS'0'
aS'1'
aS'0'
asS'Pseudomonas_aeruginosa'
p462
(lp463
S'3'
aS'0'
aS'0'
aS'6'
aS'0'
asS'Helicobacter_hepaticus'
p464
(lp465
S'1'
aS'3'
aS'1'
aS'1'
aS'0'
asS'Agrobacterium_tumefaciens'
p466
(lp467
S'0'
aS'1'
aS'1'
aS'0'
aS'1'
asS'Vibrio_cholerae'
p468
(lp469
S'1'
aS'4'
aS'0'
aS'1'
aS'0'
asS'Escherichia_coli'
p470
(lp471
S'0'
aS'0'
aS'0'
aS'0'
aS'0'
asS'Mesorhizobium_loti'
p472
(lp473
S'0'
aS'0'
aS'1'
aS'0'
aS'1'
asS'Chromobacterium_violaceum'
p474
(lp475
S'0'
aS'2'
aS'0'
aS'1'
aS'0'
asS'Haemophilus_influenzae'
p476
(lp477
S'0'
aS'3'
aS'0'
aS'0'
aS'0'
asS'Pasteurella_multocida'
p478
(lp479
S'0'
aS'2'
aS'1'
aS'0'
aS'1'
asS'Bordetella_bronchiseptica'
p480
(lp481
S'2'
aS'1'
aS'1'
aS'0'
aS'1'
asS'Bordetella_parapertussis'
p482
(lp483
S'2'
aS'1'
aS'1'
aS'0'
aS'1'
asS'Ralstonia_solanacearum'
p484
(lp485
S'0'
aS'0'
aS'0'
aS'0'
aS'0'
asS'Vibrio_parahaemolyticus'
p486
(lp487
S'0'
aS'3'
aS'0'
aS'0'
aS'0'
asS'Yersinia_pestis'
p488
(lp489
S'0'
aS'0'
aS'0'
aS'0'
aS'0'
asS'Xanthomonas_campestris'
p490
(lp491
S'0'
aS'2'
aS'1'
aS'0'
aS'0'
asS'Salmonella_enterica'
p492
(lp493
S'0'
aS'3'
aS'0'
aS'0'
aS'0'
asS'Sinorhizobium_meliloti'
p494
(lp495
S'0'
aS'2'
aS'0'
aS'0'
aS'0'
asS'Shigella_flexneri'
p496
(lp497
S'0'
aS'0'
aS'1'
aS'0'
aS'0'
asS'Nitrosomonas_europaea'
p498
(lp499
S'0'
aS'3'
aS'0'
aS'0'
aS'0'
assS'hyfABCDEFGHIJR-focB'
p500
(dp501
S'Campylobacter_jejuni'
p502
(lp503
S'1'
aS'3'
aS'4'
aS'2'
aS'0'
asS'Bordetella_pertussis'
p504
(lp505
S'3'
aS'3'
aS'5'
aS'2'
aS'0'
asS'Xanthomonas_axonopodis'
p506
(lp507
S'0'
aS'4'
aS'5'
aS'0'
aS'0'
asS'Buchnera_aphidicola'
p508
(lp509
S'1'
aS'5'
aS'3'
aS'2'
aS'0'
asS'Pseudomonas_syringae'
p510
(lp511
S'1'
aS'4'
aS'3'
aS'2'
aS'0'
asS'Brucella_suis'
p512
(lp513
S'2'
aS'3'
aS'5'
aS'2'
aS'2'
asS'Pseudomonas_putida'
p514
(lp515
S'1'
aS'3'
aS'5'
aS'1'
aS'2'
asS'Wolinella_succinogenes'
p516
(lp517
S'2'
aS'2'
aS'2'
aS'1'
aS'1'
asS'Caulobacter_crescentus'
p518
(lp519
S'2'
aS'4'
aS'4'
aS'1'
aS'1'
asS'Agrobacterium_tumefaciens'
p520
(lp521
S'1'
aS'5'
aS'3'
aS'1'
aS'0'
asS'Bradyrhizobium_japonicum'
p522
(lp523
S'2'
aS'2'
aS'6'
aS'2'
aS'3'
asS'Brucella_melitensis'
p524
(lp525
S'3'
aS'3'
aS'6'
aS'3'
aS'2'
asS'Shewanella_oneidensis'
p526
(lp527
S'1'
aS'2'
aS'6'
aS'1'
aS'1'
asS'Pseudomonas_aeruginosa'
p528
(lp529
S'1'
aS'3'
aS'5'
aS'1'
aS'0'
asS'Xanthomonas_campestris'
p530
(lp531
S'0'
aS'4'
aS'6'
aS'0'
aS'2'
asS'Nitrosomonas_europaea'
p532
(lp533
S'2'
aS'3'
aS'7'
aS'1'
aS'4'
asS'Escherichia_coli'
p534
(lp535
S'0'
aS'0'
aS'0'
aS'0'
aS'0'
asS'Mesorhizobium_loti'
p536
(lp537
S'1'
aS'4'
aS'4'
aS'2'
aS'0'
asS'Chromobacterium_violaceum'
p538
(lp539
S'2'
aS'3'
aS'6'
aS'2'
aS'0'
asS'Shigella_flexneri'
p540
(lp541
S'2'
aS'0'
aS'5'
aS'2'
aS'3'
asS'Bordetella_bronchiseptica'
p542
(lp543
S'3'
aS'3'
aS'6'
aS'1'
aS'1'
asS'Bordetella_parapertussis'
p544
(lp545
S'3'
aS'3'
aS'5'
aS'2'
aS'1'
asS'Ralstonia_solanacearum'
p546
(lp547
S'1'
aS'3'
aS'6'
aS'1'
aS'1'
asS'Yersinia_pestis'
p548
(lp549
S'2'
aS'2'
aS'6'
aS'2'
aS'1'
asS'Candidatus_Blochmannia'
p550
(lp551
S'1'
aS'5'
aS'3'
aS'1'
aS'0'
asS'Neisseria_meningitidis'
p552
(lp553
S'0'
aS'5'
aS'4'
aS'0'
aS'0'
asS'Salmonella_enterica'
p554
(lp555
S'1'
aS'1'
aS'3'
aS'0'
aS'0'
asS'Sinorhizobium_meliloti'
p556
(lp557
S'1'
aS'4'
aS'5'
aS'1'
aS'2'
asS'Helicobacter_hepaticus'
p558
(lp559
S'1'
aS'3'
aS'4'
aS'2'
aS'1'
asS'Xylella_fastidiosa'
p560
(lp561
S'0'
aS'4'
aS'5'
aS'0'
aS'1'
assS'lptD-surA-pdxA-rsmA-apaGH'
p562
(dp563
S'Bordetella_pertussis'
p564
(lp565
S'0'
aS'0'
aS'3'
aS'0'
aS'1'
asS'Xanthomonas_axonopodis'
p566
(lp567
S'0'
aS'0'
aS'0'
aS'0'
aS'0'
asS'Buchnera_aphidicola'
p568
(lp569
S'0'
aS'3'
aS'0'
aS'0'
aS'0'
asS'Pseudomonas_syringae'
p570
(lp571
S'0'
aS'0'
aS'0'
aS'0'
aS'0'
asS'Brucella_suis'
p572
(lp573
S'0'
aS'1'
aS'1'
aS'0'
aS'0'
asS'Vibrio_vulnificus'
p574
(lp575
S'0'
aS'0'
aS'0'
aS'0'
aS'0'
asS'Pseudomonas_putida'
p576
(lp577
S'0'
aS'1'
aS'0'
aS'0'
aS'0'
asS'Caulobacter_crescentus'
p578
(lp579
S'0'
aS'1'
aS'1'
aS'0'
aS'1'
asS'Bradyrhizobium_japonicum'
p580
(lp581
S'0'
aS'1'
aS'1'
aS'0'
aS'0'
asS'Brucella_melitensis'
p582
(lp583
S'0'
aS'1'
aS'1'
aS'0'
aS'0'
asS'Shewanella_oneidensis'
p584
(lp585
S'0'
aS'0'
aS'0'
aS'0'
aS'0'
asS'Pseudomonas_aeruginosa'
p586
(lp587
S'0'
aS'0'
aS'0'
aS'0'
aS'0'
asS'Neisseria_meningitidis'
p588
(lp589
S'0'
aS'1'
aS'3'
aS'0'
aS'2'
asS'Agrobacterium_tumefaciens'
p590
(lp591
S'0'
aS'2'
aS'2'
aS'0'
aS'0'
asS'Vibrio_cholerae'
p592
(lp593
S'0'
aS'0'
aS'0'
aS'0'
aS'0'
asS'Escherichia_coli'
p594
(lp595
S'0'
aS'0'
aS'0'
aS'0'
aS'0'
asS'Mesorhizobium_loti'
p596
(lp597
S'0'
aS'0'
aS'4'
aS'0'
aS'1'
asS'Chromobacterium_violaceum'
p598
(lp599
S'0'
aS'0'
aS'3'
aS'0'
aS'2'
asS'Pasteurella_multocida'
p600
(lp601
S'0'
aS'1'
aS'2'
aS'0'
aS'1'
asS'Bordetella_bronchiseptica'
p602
(lp603
S'0'
aS'0'
aS'3'
aS'0'
aS'1'
asS'Bordetella_parapertussis'
p604
(lp605
S'0'
aS'0'
aS'3'
aS'0'
aS'2'
asS'Xanthomonas_campestris'
p606
(lp607
S'0'
aS'0'
aS'1'
aS'0'
aS'0'
asS'Ralstonia_solanacearum'
p608
(lp609
S'0'
aS'0'
aS'2'
aS'0'
aS'1'
asS'Vibrio_parahaemolyticus'
p610
(lp611
S'0'
aS'0'
aS'0'
aS'0'
aS'0'
asS'Yersinia_pestis'
p612
(lp613
S'0'
aS'0'
aS'0'
aS'0'
aS'0'
asS'Candidatus_Blochmannia'
p614
(lp615
S'0'
aS'1'
aS'0'
aS'0'
aS'0'
asS'Salmonella_enterica'
p616
(lp617
S'0'
aS'0'
aS'0'
aS'0'
aS'0'
asS'Sinorhizobium_meliloti'
p618
(lp619
S'0'
aS'1'
aS'3'
aS'0'
aS'0'
asS'Shigella_flexneri'
p620
(lp621
S'0'
aS'0'
aS'0'
aS'0'
aS'0'
asS'Nitrosomonas_europaea'
p622
(lp623
S'0'
aS'0'
aS'2'
aS'0'
aS'1'
asS'Xylella_fastidiosa'
p624
(lp625
S'0'
aS'0'
aS'1'
aS'0'
aS'0'
assS'ulaABCDEF'
p626
(dp627
S'Haemophilus_influenzae'
p628
(lp629
S'0'
aS'3'
aS'0'
aS'2'
aS'0'
asS'Pasteurella_multocida'
p630
(lp631
S'1'
aS'0'
aS'2'
aS'0'
aS'1'
asS'Shigella_flexneri'
p632
(lp633
S'0'
aS'0'
aS'0'
aS'0'
aS'0'
asS'Escherichia_coli'
p634
(lp635
S'0'
aS'0'
aS'0'
aS'0'
aS'0'
asS'Salmonella_enterica'
p636
(lp637
S'0'
aS'0'
aS'0'
aS'0'
aS'0'
assS'hcaEFCBD'
p638
(dp639
S'Bordetella_pertussis'
p640
(lp641
S'2'
aS'0'
aS'2'
aS'2'
aS'1'
asS'Xanthomonas_axonopodis'
p642
(lp643
S'1'
aS'1'
aS'3'
aS'1'
aS'1'
asS'Escherichia_coli'
p644
(lp645
S'0'
aS'0'
aS'0'
aS'0'
aS'0'
asS'Mesorhizobium_loti'
p646
(lp647
S'1'
aS'1'
aS'2'
aS'1'
aS'1'
asS'Pseudomonas_syringae'
p648
(lp649
S'1'
aS'2'
aS'2'
aS'1'
aS'1'
asS'Sinorhizobium_meliloti'
p650
(lp651
S'1'
aS'1'
aS'2'
aS'0'
aS'1'
asS'Pseudomonas_putida'
p652
(lp653
S'1'
aS'1'
aS'2'
aS'1'
aS'1'
asS'Shigella_flexneri'
p654
(lp655
S'0'
aS'0'
aS'1'
aS'0'
aS'0'
asS'Bordetella_bronchiseptica'
p656
(lp657
S'1'
aS'0'
aS'1'
aS'2'
aS'1'
asS'Bordetella_parapertussis'
p658
(lp659
S'2'
aS'0'
aS'2'
aS'1'
aS'1'
asS'Ralstonia_solanacearum'
p660
(lp661
S'0'
aS'2'
aS'1'
aS'0'
aS'0'
asS'Bradyrhizobium_japonicum'
p662
(lp663
S'1'
aS'0'
aS'3'
aS'1'
aS'1'
asS'Caulobacter_crescentus'
p664
(lp665
S'0'
aS'1'
aS'2'
aS'0'
aS'0'
asS'Pseudomonas_aeruginosa'
p666
(lp667
S'0'
aS'1'
aS'2'
aS'0'
aS'1'
asS'Xanthomonas_campestris'
p668
(lp669
S'0'
aS'2'
aS'1'
aS'0'
aS'1'
assS'fecABCDE'
p670
(dp671
S'Campylobacter_jejuni'
p672
(lp673
S'0'
aS'0'
aS'1'
aS'2'
aS'0'
asS'Bordetella_pertussis'
p674
(lp675
S'1'
aS'1'
aS'2'
aS'0'
aS'1'
asS'Xanthomonas_axonopodis'
p676
(lp677
S'2'
aS'3'
aS'1'
aS'1'
aS'1'
asS'Buchnera_aphidicola'
p678
(lp679
S'1'
aS'4'
aS'0'
aS'1'
aS'0'
asS'Pseudomonas_syringae'
p680
(lp681
S'1'
aS'0'
aS'1'
aS'1'
aS'1'
asS'Brucella_suis'
p682
(lp683
S'0'
aS'1'
aS'2'
aS'1'
aS'0'
asS'Vibrio_vulnificus'
p684
(lp685
S'0'
aS'1'
aS'2'
aS'0'
aS'1'
asS'Pseudomonas_putida'
p686
(lp687
S'2'
aS'0'
aS'2'
aS'0'
aS'0'
asS'Wolinella_succinogenes'
p688
(lp689
S'0'
aS'1'
aS'2'
aS'1'
aS'1'
asS'Caulobacter_crescentus'
p690
(lp691
S'1'
aS'1'
aS'2'
aS'1'
aS'1'
asS'Bradyrhizobium_japonicum'
p692
(lp693
S'0'
aS'1'
aS'2'
aS'1'
aS'1'
asS'Brucella_melitensis'
p694
(lp695
S'0'
aS'1'
aS'2'
aS'1'
aS'0'
asS'Shewanella_oneidensis'
p696
(lp697
S'0'
aS'1'
aS'2'
aS'0'
aS'0'
asS'Pseudomonas_aeruginosa'
p698
(lp699
S'1'
aS'1'
aS'2'
aS'1'
aS'1'
asS'Helicobacter_hepaticus'
p700
(lp701
S'1'
aS'3'
aS'1'
aS'1'
aS'1'
asS'Agrobacterium_tumefaciens'
p702
(lp703
S'0'
aS'0'
aS'1'
aS'2'
aS'0'
asS'Vibrio_cholerae'
p704
(lp705
S'2'
aS'0'
aS'1'
aS'3'
aS'0'
asS'Escherichia_coli'
p706
(lp707
S'0'
aS'0'
aS'0'
aS'0'
aS'0'
asS'Mesorhizobium_loti'
p708
(lp709
S'0'
aS'1'
aS'2'
aS'0'
aS'1'
asS'Chromobacterium_violaceum'
p710
(lp711
S'0'
aS'0'
aS'2'
aS'0'
aS'1'
asS'Haemophilus_influenzae'
p712
(lp713
S'0'
aS'1'
aS'2'
aS'0'
aS'0'
asS'Pasteurella_multocida'
p714
(lp715
S'0'
aS'0'
aS'1'
aS'0'
aS'1'
asS'Bordetella_bronchiseptica'
p716
(lp717
S'1'
aS'1'
aS'2'
aS'0'
aS'1'
asS'Bordetella_parapertussis'
p718
(lp719
S'0'
aS'1'
aS'2'
aS'0'
aS'0'
asS'Ralstonia_solanacearum'
p720
(lp721
S'0'
aS'0'
aS'2'
aS'1'
aS'1'
asS'Vibrio_parahaemolyticus'
p722
(lp723
S'0'
aS'1'
aS'2'
aS'1'
aS'1'
asS'Yersinia_pestis'
p724
(lp725
S'2'
aS'0'
aS'1'
aS'2'
aS'1'
asS'Xanthomonas_campestris'
p726
(lp727
S'1'
aS'3'
aS'1'
aS'0'
aS'0'
asS'Salmonella_enterica'
p728
(lp729
S'1'
aS'0'
aS'2'
aS'0'
aS'1'
asS'Sinorhizobium_meliloti'
p730
(lp731
S'0'
aS'1'
aS'2'
aS'1'
aS'0'
asS'Shigella_flexneri'
p732
(lp733
S'3'
aS'0'
aS'2'
aS'0'
aS'1'
asS'Nitrosomonas_europaea'
p734
(lp735
S'1'
aS'3'
aS'1'
aS'0'
aS'0'
asS'Xylella_fastidiosa'
p736
(lp737
S'0'
aS'3'
aS'0'
aS'0'
aS'0'
assS'yiaKLMNO-lyxK-sgbHUE'
p738
(dp739
S'Bordetella_pertussis'
p740
(lp741
S'1'
aS'3'
aS'3'
aS'0'
aS'2'
asS'Escherichia_coli'
p742
(lp743
S'0'
aS'0'
aS'0'
aS'0'
aS'0'
asS'Sinorhizobium_meliloti'
p744
(lp745
S'1'
aS'3'
aS'4'
aS'1'
aS'1'
asS'Vibrio_vulnificus'
p746
(lp747
S'0'
aS'4'
aS'2'
aS'1'
aS'1'
asS'Pseudomonas_putida'
p748
(lp749
S'0'
aS'4'
aS'2'
aS'1'
aS'0'
asS'Wolinella_succinogenes'
p750
(lp751
S'0'
aS'5'
aS'1'
aS'1'
aS'0'
asS'Caulobacter_crescentus'
p752
(lp753
S'0'
aS'5'
aS'2'
aS'0'
aS'0'
asS'Bradyrhizobium_japonicum'
p754
(lp755
S'0'
aS'1'
aS'5'
aS'0'
aS'3'
asS'Brucella_melitensis'
p756
(lp757
S'0'
aS'6'
aS'1'
aS'0'
aS'1'
asS'Pseudomonas_aeruginosa'
p758
(lp759
S'0'
aS'3'
aS'3'
aS'1'
aS'0'
asS'Helicobacter_hepaticus'
p760
(lp761
S'0'
aS'6'
aS'0'
aS'1'
aS'0'
asS'Agrobacterium_tumefaciens'
p762
(lp763
S'0'
aS'4'
aS'2'
aS'0'
aS'0'
asS'Vibrio_cholerae'
p764
(lp765
S'0'
aS'5'
aS'1'
aS'1'
aS'0'
asS'Chromobacterium_violaceum'
p766
(lp767
S'0'
aS'5'
aS'1'
aS'1'
aS'1'
asS'Haemophilus_influenzae'
p768
(lp769
S'0'
aS'0'
aS'1'
aS'2'
aS'0'
asS'Pasteurella_multocida'
p770
(lp771
S'0'
aS'0'
aS'1'
aS'0'
aS'0'
asS'Bordetella_bronchiseptica'
p772
(lp773
S'1'
aS'3'
aS'3'
aS'1'
aS'1'
asS'Bordetella_parapertussis'
p774
(lp775
S'0'
aS'3'
aS'3'
aS'0'
aS'1'
asS'Brucella_suis'
p776
(lp777
S'0'
aS'6'
aS'1'
aS'0'
aS'1'
asS'Vibrio_parahaemolyticus'
p778
(lp779
S'0'
aS'5'
aS'1'
aS'1'
aS'0'
asS'Yersinia_pestis'
p780
(lp781
S'0'
aS'3'
aS'4'
aS'0'
aS'2'
asS'Salmonella_enterica'
p782
(lp783
S'0'
aS'1'
aS'2'
aS'0'
aS'0'
asS'Shigella_flexneri'
p784
(lp785
S'1'
aS'0'
aS'5'
aS'1'
aS'3'
assS'rplKAJL-rpoBC'
p786
(dp787
S'Campylobacter_jejuni'
p788
(lp789
S'0'
aS'0'
aS'0'
aS'0'
aS'0'
asS'Bordetella_pertussis'
p790
(lp791
S'0'
aS'0'
aS'0'
aS'0'
aS'0'
asS'Xanthomonas_axonopodis'
p792
(lp793
S'0'
aS'0'
aS'1'
aS'0'
aS'0'
asS'Buchnera_aphidicola'
p794
(lp795
S'0'
aS'0'
aS'0'
aS'0'
aS'0'
asS'Pseudomonas_syringae'
p796
(lp797
S'0'
aS'0'
aS'0'
aS'0'
aS'0'
asS'Brucella_suis'
p798
(lp799
S'0'
aS'0'
aS'0'
aS'0'
aS'0'
asS'Vibrio_vulnificus'
p800
(lp801
S'0'
aS'0'
aS'0'
aS'0'
aS'0'
asS'Pseudomonas_putida'
p802
(lp803
S'0'
aS'0'
aS'0'
aS'0'
aS'0'
asS'Wolinella_succinogenes'
p804
(lp805
S'0'
aS'1'
aS'2'
aS'2'
aS'0'
asS'Caulobacter_crescentus'
p806
(lp807
S'0'
aS'0'
aS'2'
aS'0'
aS'1'
asS'Candidatus_Blochmannia'
p808
(lp809
S'0'
aS'0'
aS'0'
aS'0'
aS'0'
asS'Bradyrhizobium_japonicum'
p810
(lp811
S'0'
aS'0'
aS'1'
aS'0'
aS'0'
asS'Brucella_melitensis'
p812
(lp813
S'0'
aS'0'
aS'0'
aS'0'
aS'0'
asS'Shewanella_oneidensis'
p814
(lp815
S'0'
aS'0'
aS'0'
aS'0'
aS'0'
asS'Pseudomonas_aeruginosa'
p816
(lp817
S'0'
aS'0'
aS'0'
aS'0'
aS'0'
asS'Helicobacter_hepaticus'
p818
(lp819
S'0'
aS'0'
aS'1'
aS'0'
aS'0'
asS'Agrobacterium_tumefaciens'
p820
(lp821
S'0'
aS'0'
aS'0'
aS'0'
aS'0'
asS'Vibrio_cholerae'
p822
(lp823
S'0'
aS'0'
aS'0'
aS'0'
aS'0'
asS'Escherichia_coli'
p824
(lp825
S'0'
aS'0'
aS'0'
aS'0'
aS'0'
asS'Mesorhizobium_loti'
p826
(lp827
S'0'
aS'0'
aS'0'
aS'0'
aS'0'
asS'Chromobacterium_violaceum'
p828
(lp829
S'0'
aS'0'
aS'0'
aS'0'
aS'0'
asS'Haemophilus_influenzae'
p830
(lp831
S'0'
aS'0'
aS'1'
aS'0'
aS'1'
asS'Pasteurella_multocida'
p832
(lp833
S'0'
aS'0'
aS'1'
aS'0'
aS'0'
asS'Bordetella_bronchiseptica'
p834
(lp835
S'0'
aS'0'
aS'0'
aS'0'
aS'0'
asS'Bordetella_parapertussis'
p836
(lp837
S'0'
aS'0'
aS'0'
aS'0'
aS'0'
asS'Xanthomonas_campestris'
p838
(lp839
S'0'
aS'0'
aS'1'
aS'0'
aS'0'
asS'Ralstonia_solanacearum'
p840
(lp841
S'0'
aS'0'
aS'0'
aS'0'
aS'0'
asS'Vibrio_parahaemolyticus'
p842
(lp843
S'0'
aS'0'
aS'0'
aS'0'
aS'0'
asS'Yersinia_pestis'
p844
(lp845
S'0'
aS'0'
aS'0'
aS'0'
aS'0'
asS'Neisseria_meningitidis'
p846
(lp847
S'0'
aS'0'
aS'0'
aS'0'
aS'0'
asS'Salmonella_enterica'
p848
(lp849
S'0'
aS'0'
aS'0'
aS'0'
aS'0'
asS'Sinorhizobium_meliloti'
p850
(lp851
S'0'
aS'0'
aS'0'
aS'0'
aS'0'
asS'Shigella_flexneri'
p852
(lp853
S'0'
aS'0'
aS'0'
aS'0'
aS'0'
asS'Nitrosomonas_europaea'
p854
(lp855
S'0'
aS'0'
aS'0'
aS'0'
aS'0'
asS'Xylella_fastidiosa'
p856
(lp857
S'0'
aS'0'
aS'1'
aS'0'
aS'0'
assS'garPLRK-rnpB'
p858
(dp859
S'Xanthomonas_axonopodis'
p860
(lp861
S'0'
aS'1'
aS'2'
aS'0'
aS'1'
asS'Yersinia_pestis'
p862
(lp863
S'0'
aS'1'
aS'2'
aS'0'
aS'0'
asS'Escherichia_coli'
p864
(lp865
S'0'
aS'1'
aS'0'
aS'0'
aS'0'
asS'Salmonella_enterica'
p866
(lp867
S'1'
aS'1'
aS'1'
aS'0'
aS'1'
asS'Shigella_flexneri'
p868
(lp869
S'0'
aS'1'
aS'2'
aS'0'
aS'0'
asS'Xanthomonas_campestris'
p870
(lp871
S'0'
aS'1'
aS'2'
aS'0'
aS'0'
assS'casABCDE12'
p872
(dp873
S'Escherichia_coli'
p874
(lp875
S'0'
aS'0'
aS'0'
aS'0'
aS'0'
asS'Salmonella_enterica'
p876
(lp877
S'0'
aS'1'
aS'1'
aS'0'
aS'0'
assS'mdtABCD-baeSR'
p878
(dp879
S'Campylobacter_jejuni'
p880
(lp881
S'0'
aS'1'
aS'2'
aS'0'
aS'0'
asS'Bordetella_pertussis'
p882
(lp883
S'1'
aS'0'
aS'2'
aS'0'
aS'1'
asS'Xanthomonas_axonopodis'
p884
(lp885
S'0'
aS'0'
aS'1'
aS'0'
aS'0'
asS'Escherichia_coli'
p886
(lp887
S'0'
aS'0'
aS'0'
aS'0'
aS'0'
asS'Pseudomonas_syringae'
p888
(lp889
S'1'
aS'0'
aS'2'
aS'1'
aS'0'
asS'Brucella_suis'
p890
(lp891
S'3'
aS'0'
aS'3'
aS'0'
aS'2'
asS'Vibrio_vulnificus'
p892
(lp893
S'0'
aS'1'
aS'2'
aS'0'
aS'0'
asS'Pseudomonas_putida'
p894
(lp895
S'2'
aS'0'
aS'2'
aS'2'
aS'1'
asS'Wolinella_succinogenes'
p896
(lp897
S'1'
aS'0'
aS'3'
aS'0'
aS'1'
asS'Caulobacter_crescentus'
p898
(lp899
S'1'
aS'0'
aS'3'
aS'0'
aS'1'
asS'Bradyrhizobium_japonicum'
p900
(lp901
S'1'
aS'0'
aS'2'
aS'0'
aS'1'
asS'Brucella_melitensis'
p902
(lp903
S'3'
aS'0'
aS'3'
aS'0'
aS'2'
asS'Shewanella_oneidensis'
p904
(lp905
S'0'
aS'0'
aS'2'
aS'0'
aS'1'
asS'Pseudomonas_aeruginosa'
p906
(lp907
S'0'
aS'0'
aS'2'
aS'0'
aS'1'
asS'Neisseria_meningitidis'
p908
(lp909
S'0'
aS'0'
aS'3'
aS'0'
aS'1'
asS'Agrobacterium_tumefaciens'
p910
(lp911
S'1'
aS'0'
aS'3'
aS'0'
aS'1'
asS'Vibrio_cholerae'
p912
(lp913
S'1'
aS'0'
aS'3'
aS'0'
aS'1'
asS'Mesorhizobium_loti'
p914
(lp915
S'2'
aS'0'
aS'2'
aS'1'
aS'0'
asS'Chromobacterium_violaceum'
p916
(lp917
S'1'
aS'0'
aS'2'
aS'0'
aS'1'
asS'Haemophilus_influenzae'
p918
(lp919
S'1'
aS'0'
aS'3'
aS'0'
aS'2'
asS'Pasteurella_multocida'
p920
(lp921
S'0'
aS'0'
aS'4'
aS'0'
aS'1'
asS'Bordetella_bronchiseptica'
p922
(lp923
S'1'
aS'0'
aS'2'
aS'0'
aS'0'
asS'Bordetella_parapertussis'
p924
(lp925
S'0'
aS'0'
aS'2'
aS'0'
aS'0'
asS'Xanthomonas_campestris'
p926
(lp927
S'1'
aS'0'
aS'1'
aS'1'
aS'0'
asS'Ralstonia_solanacearum'
p928
(lp929
S'1'
aS'0'
aS'3'
aS'1'
aS'0'
asS'Vibrio_parahaemolyticus'
p930
(lp931
S'2'
aS'0'
aS'3'
aS'1'
aS'1'
asS'Yersinia_pestis'
p932
(lp933
S'0'
aS'0'
aS'1'
aS'0'
aS'1'
asS'Helicobacter_hepaticus'
p934
(lp935
S'0'
aS'0'
aS'3'
aS'0'
aS'0'
asS'Salmonella_enterica'
p936
(lp937
S'0'
aS'0'
aS'0'
aS'0'
aS'0'
asS'Sinorhizobium_meliloti'
p938
(lp939
S'1'
aS'0'
aS'3'
aS'0'
aS'0'
asS'Shigella_flexneri'
p940
(lp941
S'0'
aS'0'
aS'1'
aS'0'
aS'1'
asS'Nitrosomonas_europaea'
p942
(lp943
S'0'
aS'0'
aS'2'
aS'1'
aS'1'
asS'Xylella_fastidiosa'
p944
(lp945
S'0'
aS'0'
aS'2'
aS'0'
aS'1'
assS'rbsDACBKR'
p946
(dp947
S'Campylobacter_jejuni'
p948
(lp949
S'1'
aS'3'
aS'2'
aS'1'
aS'0'
asS'Bordetella_pertussis'
p950
(lp951
S'0'
aS'3'
aS'1'
aS'0'
aS'0'
asS'Xanthomonas_axonopodis'
p952
(lp953
S'1'
aS'2'
aS'3'
aS'1'
aS'2'
asS'Buchnera_aphidicola'
p954
(lp955
S'1'
aS'5'
aS'0'
aS'1'
aS'0'
asS'Pseudomonas_syringae'
p956
(lp957
S'0'
aS'0'
aS'0'
aS'3'
aS'0'
asS'Brucella_suis'
p958
(lp959
S'0'
aS'1'
aS'2'
aS'0'
aS'1'
asS'Vibrio_vulnificus'
p960
(lp961
S'1'
aS'3'
aS'2'
aS'1'
aS'0'
asS'Pseudomonas_putida'
p962
(lp963
S'0'
aS'0'
aS'0'
aS'3'
aS'0'
asS'Wolinella_succinogenes'
p964
(lp965
S'1'
aS'4'
aS'1'
aS'1'
aS'1'
asS'Caulobacter_crescentus'
p966
(lp967
S'0'
aS'1'
aS'2'
aS'1'
aS'1'
asS'Bradyrhizobium_japonicum'
p968
(lp969
S'2'
aS'1'
aS'2'
aS'1'
aS'1'
asS'Brucella_melitensis'
p970
(lp971
S'0'
aS'1'
aS'2'
aS'0'
aS'1'
asS'Shewanella_oneidensis'
p972
(lp973
S'1'
aS'2'
aS'3'
aS'1'
aS'2'
asS'Pseudomonas_aeruginosa'
p974
(lp975
S'0'
aS'1'
aS'0'
aS'2'
aS'0'
asS'Helicobacter_hepaticus'
p976
(lp977
S'1'
aS'4'
aS'1'
aS'1'
aS'0'
asS'Agrobacterium_tumefaciens'
p978
(lp979
S'1'
aS'1'
aS'2'
aS'0'
aS'1'
asS'Vibrio_cholerae'
p980
(lp981
S'0'
aS'2'
aS'2'
aS'0'
aS'0'
asS'Escherichia_coli'
p982
(lp983
S'0'
aS'0'
aS'0'
aS'0'
aS'0'
asS'Mesorhizobium_loti'
p984
(lp985
S'0'
aS'1'
aS'1'
aS'0'
aS'1'
asS'Chromobacterium_violaceum'
p986
(lp987
S'0'
aS'0'
aS'0'
aS'2'
aS'0'
asS'Haemophilus_influenzae'
p988
(lp989
S'0'
aS'0'
aS'0'
aS'0'
aS'0'
asS'Pasteurella_multocida'
p990
(lp991
S'0'
aS'0'
aS'0'
aS'0'
aS'0'
asS'Bordetella_bronchiseptica'
p992
(lp993
S'1'
aS'1'
aS'2'
aS'0'
aS'1'
asS'Bordetella_parapertussis'
p994
(lp995
S'1'
aS'1'
aS'2'
aS'0'
aS'1'
asS'Ralstonia_solanacearum'
p996
(lp997
S'0'
aS'1'
aS'0'
aS'2'
aS'0'
asS'Vibrio_parahaemolyticus'
p998
(lp999
S'1'
aS'3'
aS'2'
aS'1'
aS'1'
asS'Yersinia_pestis'
p1000
(lp1001
S'0'
aS'0'
aS'1'
aS'1'
aS'0'
asS'Salmonella_enterica'
p1002
(lp1003
S'0'
aS'0'
aS'0'
aS'0'
aS'0'
asS'Sinorhizobium_meliloti'
p1004
(lp1005
S'0'
aS'1'
aS'2'
aS'1'
aS'1'
asS'Shigella_flexneri'
p1006
(lp1007
S'0'
aS'0'
aS'3'
aS'1'
aS'0'
assS'srlAEBD-gutM-srlR-gutQ'
p1008
(dp1009
S'Bordetella_pertussis'
p1010
(lp1011
S'1'
aS'4'
aS'2'
aS'1'
aS'1'
asS'Mesorhizobium_loti'
p1012
(lp1013
S'0'
aS'1'
aS'2'
aS'0'
aS'0'
asS'Escherichia_coli'
p1014
(lp1015
S'0'
aS'0'
aS'0'
aS'0'
aS'0'
asS'Pseudomonas_syringae'
p1016
(lp1017
S'0'
aS'4'
aS'1'
aS'0'
aS'1'
asS'Sinorhizobium_meliloti'
p1018
(lp1019
S'0'
aS'4'
aS'1'
aS'0'
aS'1'
asS'Pseudomonas_putida'
p1020
(lp1021
S'1'
aS'4'
aS'2'
aS'1'
aS'1'
asS'Pasteurella_multocida'
p1022
(lp1023
S'0'
aS'0'
aS'2'
aS'0'
aS'0'
asS'Bordetella_bronchiseptica'
p1024
(lp1025
S'1'
aS'4'
aS'2'
aS'1'
aS'1'
asS'Bradyrhizobium_japonicum'
p1026
(lp1027
S'1'
aS'4'
aS'2'
aS'1'
aS'1'
asS'Salmonella_enterica'
p1028
(lp1029
S'0'
aS'0'
aS'0'
aS'0'
aS'0'
asS'Shigella_flexneri'
p1030
(lp1031
S'0'
aS'1'
aS'0'
aS'0'
aS'0'
assS'hyaABCDEF'
p1032
(dp1033
S'Campylobacter_jejuni'
p1034
(lp1035
S'0'
aS'2'
aS'0'
aS'0'
aS'0'
asS'Bradyrhizobium_japonicum'
p1036
(lp1037
S'1'
aS'1'
aS'1'
aS'1'
aS'0'
asS'Helicobacter_hepaticus'
p1038
(lp1039
S'0'
aS'2'
aS'0'
aS'0'
aS'0'
asS'Escherichia_coli'
p1040
(lp1041
S'0'
aS'0'
aS'0'
aS'0'
aS'0'
asS'Salmonella_enterica'
p1042
(lp1043
S'0'
aS'0'
aS'1'
aS'0'
aS'0'
asS'Shewanella_oneidensis'
p1044
(lp1045
S'0'
aS'2'
aS'0'
aS'0'
aS'0'
asS'Shigella_flexneri'
p1046
(lp1047
S'0'
aS'0'
aS'0'
aS'0'
aS'0'
asS'Wolinella_succinogenes'
p1048
(lp1049
S'0'
aS'2'
aS'0'
aS'0'
aS'0'
assS'pstSCAB-phoU'
p1050
(dp1051
S'Campylobacter_jejuni'
p1052
(lp1053
S'0'
aS'2'
aS'0'
aS'0'
aS'0'
asS'Bordetella_pertussis'
p1054
(lp1055
S'0'
aS'0'
aS'1'
aS'0'
aS'0'
asS'Xanthomonas_axonopodis'
p1056
(lp1057
S'1'
aS'0'
aS'0'
aS'0'
aS'0'
asS'Buchnera_aphidicola'
p1058
(lp1059
S'1'
aS'4'
aS'0'
aS'1'
aS'0'
asS'Pseudomonas_syringae'
p1060
(lp1061
S'3'
aS'0'
aS'1'
aS'0'
aS'0'
asS'Brucella_suis'
p1062
(lp1063
S'0'
aS'1'
aS'0'
aS'0'
aS'0'
asS'Vibrio_vulnificus'
p1064
(lp1065
S'0'
aS'1'
aS'0'
aS'0'
aS'0'
asS'Pseudomonas_putida'
p1066
(lp1067
S'3'
aS'0'
aS'1'
aS'0'
aS'1'
asS'Wolinella_succinogenes'
p1068
(lp1069
S'0'
aS'1'
aS'0'
aS'1'
aS'0'
asS'Caulobacter_crescentus'
p1070
(lp1071
S'0'
aS'1'
aS'0'
aS'0'
aS'0'
asS'Bradyrhizobium_japonicum'
p1072
(lp1073
S'0'
aS'0'
aS'0'
aS'0'
aS'0'
asS'Brucella_melitensis'
p1074
(lp1075
S'0'
aS'1'
aS'0'
aS'0'
aS'0'
asS'Shewanella_oneidensis'
p1076
(lp1077
S'3'
aS'0'
aS'1'
aS'1'
aS'1'
asS'Pseudomonas_aeruginosa'
p1078
(lp1079
S'0'
aS'1'
aS'0'
aS'0'
aS'0'
asS'Neisseria_meningitidis'
p1080
(lp1081
S'0'
aS'2'
aS'0'
aS'0'
aS'0'
asS'Agrobacterium_tumefaciens'
p1082
(lp1083
S'0'
aS'1'
aS'0'
aS'0'
aS'0'
asS'Vibrio_cholerae'
p1084
(lp1085
S'0'
aS'1'
aS'0'
aS'0'
aS'0'
asS'Escherichia_coli'
p1086
(lp1087
S'0'
aS'0'
aS'0'
aS'0'
aS'0'
asS'Mesorhizobium_loti'
p1088
(lp1089
S'0'
aS'0'
aS'0'
aS'0'
aS'0'
asS'Chromobacterium_violaceum'
p1090
(lp1091
S'0'
aS'0'
aS'1'
aS'0'
aS'1'
asS'Haemophilus_influenzae'
p1092
(lp1093
S'1'
aS'1'
aS'1'
aS'1'
aS'1'
asS'Pasteurella_multocida'
p1094
(lp1095
S'0'
aS'1'
aS'0'
aS'0'
aS'0'
asS'Bordetella_bronchiseptica'
p1096
(lp1097
S'0'
aS'0'
aS'1'
aS'0'
aS'1'
asS'Bordetella_parapertussis'
p1098
(lp1099
S'0'
aS'0'
aS'1'
aS'0'
aS'0'
asS'Ralstonia_solanacearum'
p1100
(lp1101
S'0'
aS'0'
aS'0'
aS'0'
aS'0'
asS'Vibrio_parahaemolyticus'
p1102
(lp1103
S'0'
aS'1'
aS'0'
aS'0'
aS'0'
asS'Yersinia_pestis'
p1104
(lp1105
S'0'
aS'0'
aS'0'
aS'0'
aS'0'
asS'Xanthomonas_campestris'
p1106
(lp1107
S'1'
aS'0'
aS'0'
aS'2'
aS'0'
asS'Salmonella_enterica'
p1108
(lp1109
S'0'
aS'0'
aS'0'
aS'0'
aS'0'
asS'Sinorhizobium_meliloti'
p1110
(lp1111
S'0'
aS'1'
aS'0'
aS'0'
aS'0'
asS'Shigella_flexneri'
p1112
(lp1113
S'0'
aS'0'
aS'0'
aS'0'
aS'0'
asS'Nitrosomonas_europaea'
p1114
(lp1115
S'0'
aS'1'
aS'1'
aS'1'
aS'1'
asS'Xylella_fastidiosa'
p1116
(lp1117
S'0'
aS'0'
aS'0'
aS'0'
aS'0'
assS'dicB-ydfDE-insD-intQ'
p1118
(dp1119
S'Shigella_flexneri'
p1120
(lp1121
S'1'
aS'2'
aS'2'
aS'1'
aS'1'
asS'Escherichia_coli'
p1122
(lp1123
S'0'
aS'0'
aS'0'
aS'0'
aS'0'
assS'caiTABCDE'
p1124
(dp1125
S'Bordetella_pertussis'
p1126
(lp1127
S'1'
aS'0'
aS'3'
aS'0'
aS'1'
asS'Xanthomonas_axonopodis'
p1128
(lp1129
S'1'
aS'1'
aS'3'
aS'1'
aS'2'
asS'Escherichia_coli'
p1130
(lp1131
S'0'
aS'0'
aS'0'
aS'0'
aS'0'
asS'Pseudomonas_syringae'
p1132
(lp1133
S'2'
aS'0'
aS'4'
aS'1'
aS'2'
asS'Brucella_suis'
p1134
(lp1135
S'2'
aS'1'
aS'3'
aS'0'
aS'0'
asS'Pseudomonas_putida'
p1136
(lp1137
S'1'
aS'0'
aS'3'
aS'0'
aS'1'
asS'Helicobacter_hepaticus'
p1138
(lp1139
S'1'
aS'4'
aS'1'
aS'1'
aS'1'
asS'Caulobacter_crescentus'
p1140
(lp1141
S'1'
aS'1'
aS'3'
aS'1'
aS'0'
asS'Bradyrhizobium_japonicum'
p1142
(lp1143
S'0'
aS'1'
aS'2'
aS'0'
aS'1'
asS'Brucella_melitensis'
p1144
(lp1145
S'1'
aS'1'
aS'3'
aS'0'
aS'0'
asS'Shewanella_oneidensis'
p1146
(lp1147
S'0'
aS'2'
aS'2'
aS'0'
aS'1'
asS'Pseudomonas_aeruginosa'
p1148
(lp1149
S'1'
aS'0'
aS'3'
aS'0'
aS'1'
asS'Xanthomonas_campestris'
p1150
(lp1151
S'0'
aS'1'
aS'3'
aS'0'
aS'1'
asS'Agrobacterium_tumefaciens'
p1152
(lp1153
S'0'
aS'1'
aS'3'
aS'0'
aS'1'
asS'Mesorhizobium_loti'
p1154
(lp1155
S'0'
aS'1'
aS'2'
aS'1'
aS'0'
asS'Chromobacterium_violaceum'
p1156
(lp1157
S'2'
aS'0'
aS'4'
aS'1'
aS'1'
asS'Shigella_flexneri'
p1158
(lp1159
S'0'
aS'0'
aS'0'
aS'0'
aS'0'
asS'Bordetella_bronchiseptica'
p1160
(lp1161
S'1'
aS'0'
aS'3'
aS'0'
aS'1'
asS'Bordetella_parapertussis'
p1162
(lp1163
S'1'
aS'0'
aS'3'
aS'0'
aS'1'
asS'Ralstonia_solanacearum'
p1164
(lp1165
S'2'
aS'1'
aS'4'
aS'2'
aS'1'
asS'Neisseria_meningitidis'
p1166
(lp1167
S'0'
aS'3'
aS'1'
aS'0'
aS'0'
asS'Salmonella_enterica'
p1168
(lp1169
S'0'
aS'0'
aS'0'
aS'0'
aS'0'
asS'Sinorhizobium_meliloti'
p1170
(lp1171
S'0'
aS'2'
aS'2'
aS'0'
aS'1'
asS'Nitrosomonas_europaea'
p1172
(lp1173
S'0'
aS'3'
aS'1'
aS'0'
aS'0'
assS'sdhCDAB-sucABCD'
p1174
(dp1175
S'Campylobacter_jejuni'
p1176
(lp1177
S'0'
aS'4'
aS'1'
aS'0'
aS'0'
asS'Bordetella_pertussis'
p1178
(lp1179
S'0'
aS'0'
aS'2'
aS'0'
aS'1'
asS'Xanthomonas_axonopodis'
p1180
(lp1181
S'0'
aS'1'
aS'2'
aS'0'
aS'1'
asS'Buchnera_aphidicola'
p1182
(lp1183
S'0'
aS'6'
aS'0'
aS'0'
aS'0'
asS'Pseudomonas_syringae'
p1184
(lp1185
S'0'
aS'0'
aS'1'
aS'0'
aS'0'
asS'Brucella_suis'
p1186
(lp1187
S'0'
aS'1'
aS'1'
aS'0'
aS'0'
asS'Vibrio_vulnificus'
p1188
(lp1189
S'0'
aS'0'
aS'0'
aS'0'
aS'0'
asS'Pseudomonas_putida'
p1190
(lp1191
S'0'
aS'0'
aS'1'
aS'0'
aS'0'
asS'Wolinella_succinogenes'
p1192
(lp1193
S'0'
aS'4'
aS'1'
aS'0'
aS'1'
asS'Caulobacter_crescentus'
p1194
(lp1195
S'0'
aS'1'
aS'1'
aS'2'
aS'1'
asS'Candidatus_Blochmannia'
p1196
(lp1197
S'0'
aS'0'
aS'0'
aS'0'
aS'0'
asS'Bradyrhizobium_japonicum'
p1198
(lp1199
S'0'
aS'1'
aS'2'
aS'1'
aS'1'
asS'Brucella_melitensis'
p1200
(lp1201
S'0'
aS'1'
aS'1'
aS'0'
aS'0'
asS'Shewanella_oneidensis'
p1202
(lp1203
S'0'
aS'0'
aS'0'
aS'0'
aS'0'
asS'Pseudomonas_aeruginosa'
p1204
(lp1205
S'0'
aS'0'
aS'1'
aS'0'
aS'0'
asS'Helicobacter_hepaticus'
p1206
(lp1207
S'0'
aS'6'
aS'0'
aS'0'
aS'0'
asS'Agrobacterium_tumefaciens'
p1208
(lp1209
S'0'
aS'1'
aS'1'
aS'2'
aS'0'
asS'Vibrio_cholerae'
p1210
(lp1211
S'0'
aS'0'
aS'0'
aS'0'
aS'0'
asS'Escherichia_coli'
p1212
(lp1213
S'0'
aS'0'
aS'0'
aS'0'
aS'0'
asS'Mesorhizobium_loti'
p1214
(lp1215
S'0'
aS'1'
aS'2'
aS'0'
aS'1'
asS'Chromobacterium_violaceum'
p1216
(lp1217
S'0'
aS'0'
aS'2'
aS'0'
aS'0'
asS'Haemophilus_influenzae'
p1218
(lp1219
S'0'
aS'2'
aS'2'
aS'0'
aS'1'
asS'Pasteurella_multocida'
p1220
(lp1221
S'0'
aS'2'
aS'2'
aS'0'
aS'1'
asS'Bordetella_bronchiseptica'
p1222
(lp1223
S'0'
aS'0'
aS'2'
aS'0'
aS'1'
asS'Bordetella_parapertussis'
p1224
(lp1225
S'0'
aS'0'
aS'2'
aS'0'
aS'1'
asS'Xanthomonas_campestris'
p1226
(lp1227
S'0'
aS'1'
aS'2'
aS'0'
aS'0'
asS'Ralstonia_solanacearum'
p1228
(lp1229
S'0'
aS'0'
aS'2'
aS'0'
aS'1'
asS'Vibrio_parahaemolyticus'
p1230
(lp1231
S'0'
aS'0'
aS'0'
aS'0'
aS'0'
asS'Yersinia_pestis'
p1232
(lp1233
S'0'
aS'0'
aS'0'
aS'0'
aS'0'
asS'Neisseria_meningitidis'
p1234
(lp1235
S'0'
aS'0'
aS'2'
aS'0'
aS'0'
asS'Salmonella_enterica'
p1236
(lp1237
S'0'
aS'0'
aS'1'
aS'0'
aS'0'
asS'Sinorhizobium_meliloti'
p1238
(lp1239
S'0'
aS'1'
aS'1'
aS'0'
aS'0'
asS'Shigella_flexneri'
p1240
(lp1241
S'1'
aS'0'
aS'0'
aS'2'
aS'0'
asS'Nitrosomonas_europaea'
p1242
(lp1243
S'0'
aS'0'
aS'3'
aS'0'
aS'0'
asS'Xylella_fastidiosa'
p1244
(lp1245
S'0'
aS'1'
aS'2'
aS'0'
aS'1'
assS'glcDEFGBA'
p1246
(dp1247
S'Campylobacter_jejuni'
p1248
(lp1249
S'0'
aS'2'
aS'2'
aS'0'
aS'0'
asS'Bordetella_pertussis'
p1250
(lp1251
S'1'
aS'1'
aS'2'
aS'2'
aS'0'
asS'Agrobacterium_tumefaciens'
p1252
(lp1253
S'0'
aS'2'
aS'1'
aS'0'
aS'0'
asS'Escherichia_coli'
p1254
(lp1255
S'0'
aS'0'
aS'0'
aS'0'
aS'0'
asS'Mesorhizobium_loti'
p1256
(lp1257
S'0'
aS'2'
aS'2'
aS'0'
aS'0'
asS'Chromobacterium_violaceum'
p1258
(lp1259
S'0'
aS'3'
aS'1'
aS'0'
aS'1'
asS'Sinorhizobium_meliloti'
p1260
(lp1261
S'0'
aS'2'
aS'1'
aS'0'
aS'0'
asS'Bordetella_bronchiseptica'
p1262
(lp1263
S'1'
aS'0'
aS'3'
aS'2'
aS'2'
asS'Pasteurella_multocida'
p1264
(lp1265
S'1'
aS'3'
aS'1'
aS'1'
aS'0'
asS'Pseudomonas_syringae'
p1266
(lp1267
S'0'
aS'2'
aS'1'
aS'0'
aS'0'
asS'Pseudomonas_putida'
p1268
(lp1269
S'0'
aS'0'
aS'2'
aS'0'
aS'1'
asS'Shigella_flexneri'
p1270
(lp1271
S'1'
aS'1'
aS'2'
aS'1'
aS'0'
asS'Bordetella_parapertussis'
p1272
(lp1273
S'1'
aS'0'
aS'3'
aS'2'
aS'2'
asS'Ralstonia_solanacearum'
p1274
(lp1275
S'0'
aS'1'
aS'2'
aS'0'
aS'1'
asS'Bradyrhizobium_japonicum'
p1276
(lp1277
S'0'
aS'0'
aS'4'
aS'2'
aS'1'
asS'Nitrosomonas_europaea'
p1278
(lp1279
S'0'
aS'3'
aS'0'
aS'0'
aS'0'
asS'Shewanella_oneidensis'
p1280
(lp1281
S'0'
aS'2'
aS'1'
aS'0'
aS'1'
asS'Pseudomonas_aeruginosa'
p1282
(lp1283
S'0'
aS'0'
aS'2'
aS'0'
aS'1'
asS'Helicobacter_hepaticus'
p1284
(lp1285
S'0'
aS'2'
aS'2'
aS'0'
aS'0'
assS'ydhYVWXUT'
p1286
(dp1287
S'Shigella_flexneri'
p1288
(lp1289
S'0'
aS'1'
aS'1'
aS'0'
aS'0'
asS'Yersinia_pestis'
p1290
(lp1291
S'1'
aS'4'
aS'1'
aS'1'
aS'1'
asS'Wolinella_succinogenes'
p1292
(lp1293
S'0'
aS'3'
aS'1'
aS'0'
aS'1'
asS'Escherichia_coli'
p1294
(lp1295
S'0'
aS'0'
aS'0'
aS'0'
aS'0'
asS'Salmonella_enterica'
p1296
(lp1297
S'0'
aS'3'
aS'1'
aS'0'
aS'1'
assS'gatYZABCD'
p1298
(dp1299
S'Shigella_flexneri'
p1300
(lp1301
S'0'
aS'0'
aS'1'
aS'0'
aS'0'
asS'Escherichia_coli'
p1302
(lp1303
S'0'
aS'0'
aS'0'
aS'0'
aS'0'
asS'Salmonella_enterica'
p1304
(lp1305
S'0'
aS'1'
aS'1'
aS'0'
aS'0'
assS'astCADBE'
p1306
(dp1307
S'Bordetella_pertussis'
p1308
(lp1309
S'0'
aS'3'
aS'0'
aS'0'
aS'0'
asS'Vibrio_cholerae'
p1310
(lp1311
S'0'
aS'1'
aS'1'
aS'0'
aS'1'
asS'Escherichia_coli'
p1312
(lp1313
S'0'
aS'0'
aS'0'
aS'0'
aS'0'
asS'Mesorhizobium_loti'
p1314
(lp1315
S'0'
aS'3'
aS'0'
aS'0'
aS'0'
asS'Chromobacterium_violaceum'
p1316
(lp1317
S'1'
aS'0'
aS'1'
aS'2'
aS'0'
asS'Bordetella_bronchiseptica'
p1318
(lp1319
S'0'
aS'3'
aS'0'
aS'0'
aS'0'
asS'Shigella_flexneri'
p1320
(lp1321
S'0'
aS'1'
aS'2'
aS'0'
aS'0'
asS'Salmonella_enterica'
p1322
(lp1323
S'0'
aS'0'
aS'0'
aS'0'
aS'0'
asS'Pseudomonas_putida'
p1324
(lp1325
S'1'
aS'0'
aS'0'
aS'2'
aS'0'
asS'Bordetella_parapertussis'
p1326
(lp1327
S'0'
aS'3'
aS'0'
aS'0'
aS'0'
asS'Ralstonia_solanacearum'
p1328
(lp1329
S'0'
aS'3'
aS'0'
aS'0'
aS'0'
asS'Vibrio_parahaemolyticus'
p1330
(lp1331
S'0'
aS'1'
aS'1'
aS'0'
aS'1'
asS'Yersinia_pestis'
p1332
(lp1333
S'0'
aS'0'
aS'0'
aS'0'
aS'0'
asS'Vibrio_vulnificus'
p1334
(lp1335
S'0'
aS'1'
aS'1'
aS'0'
aS'1'
asS'Shewanella_oneidensis'
p1336
(lp1337
S'0'
aS'0'
aS'2'
aS'0'
aS'0'
asS'Caulobacter_crescentus'
p1338
(lp1339
S'0'
aS'1'
aS'0'
aS'1'
aS'0'
asS'Pseudomonas_aeruginosa'
p1340
(lp1341
S'1'
aS'0'
aS'0'
aS'2'
aS'0'
asS'Pseudomonas_syringae'
p1342
(lp1343
S'1'
aS'0'
aS'0'
aS'2'
aS'0'
assS'hycABCDEFGHI'
p1344
(dp1345
S'Campylobacter_jejuni'
p1346
(lp1347
S'2'
aS'3'
aS'3'
aS'2'
aS'0'
asS'Bordetella_pertussis'
p1348
(lp1349
S'1'
aS'4'
aS'2'
aS'1'
aS'0'
asS'Xanthomonas_axonopodis'
p1350
(lp1351
S'1'
aS'4'
aS'3'
aS'1'
aS'0'
asS'Escherichia_coli'
p1352
(lp1353
S'0'
aS'0'
aS'0'
aS'0'
aS'0'
asS'Pseudomonas_syringae'
p1354
(lp1355
S'1'
aS'4'
aS'2'
aS'1'
aS'0'
asS'Brucella_suis'
p1356
(lp1357
S'2'
aS'4'
aS'2'
aS'2'
aS'0'
asS'Pseudomonas_putida'
p1358
(lp1359
S'1'
aS'3'
aS'3'
aS'1'
aS'0'
asS'Wolinella_succinogenes'
p1360
(lp1361
S'1'
aS'2'
aS'1'
aS'0'
aS'0'
asS'Caulobacter_crescentus'
p1362
(lp1363
S'2'
aS'4'
aS'2'
aS'1'
aS'0'
asS'Agrobacterium_tumefaciens'
p1364
(lp1365
S'2'
aS'4'
aS'2'
aS'1'
aS'0'
asS'Bradyrhizobium_japonicum'
p1366
(lp1367
S'0'
aS'3'
aS'2'
aS'0'
aS'1'
asS'Brucella_melitensis'
p1368
(lp1369
S'2'
aS'4'
aS'2'
aS'2'
aS'0'
asS'Shewanella_oneidensis'
p1370
(lp1371
S'1'
aS'3'
aS'3'
aS'1'
aS'1'
asS'Pseudomonas_aeruginosa'
p1372
(lp1373
S'1'
aS'3'
aS'3'
aS'1'
aS'1'
asS'Xanthomonas_campestris'
p1374
(lp1375
S'1'
aS'4'
aS'3'
aS'1'
aS'0'
asS'Nitrosomonas_europaea'
p1376
(lp1377
S'1'
aS'4'
aS'3'
aS'1'
aS'0'
asS'Buchnera_aphidicola'
p1378
(lp1379
S'0'
aS'3'
aS'3'
aS'1'
aS'0'
asS'Mesorhizobium_loti'
p1380
(lp1381
S'2'
aS'3'
aS'3'
aS'2'
aS'0'
asS'Chromobacterium_violaceum'
p1382
(lp1383
S'2'
aS'3'
aS'3'
aS'2'
aS'1'
asS'Shigella_flexneri'
p1384
(lp1385
S'1'
aS'0'
aS'2'
aS'0'
aS'1'
asS'Bordetella_bronchiseptica'
p1386
(lp1387
S'1'
aS'3'
aS'3'
aS'1'
aS'0'
asS'Bordetella_parapertussis'
p1388
(lp1389
S'1'
aS'3'
aS'3'
aS'1'
aS'0'
asS'Ralstonia_solanacearum'
p1390
(lp1391
S'2'
aS'3'
aS'3'
aS'2'
aS'0'
asS'Yersinia_pestis'
p1392
(lp1393
S'2'
aS'3'
aS'3'
aS'2'
aS'1'
asS'Candidatus_Blochmannia'
p1394
(lp1395
S'0'
aS'4'
aS'2'
aS'0'
aS'0'
asS'Neisseria_meningitidis'
p1396
(lp1397
S'1'
aS'4'
aS'3'
aS'1'
aS'0'
asS'Salmonella_enterica'
p1398
(lp1399
S'0'
aS'0'
aS'0'
aS'0'
aS'0'
asS'Sinorhizobium_meliloti'
p1400
(lp1401
S'2'
aS'4'
aS'2'
aS'2'
aS'0'
asS'Helicobacter_hepaticus'
p1402
(lp1403
S'2'
aS'2'
aS'4'
aS'2'
aS'1'
asS'Xylella_fastidiosa'
p1404
(lp1405
S'1'
aS'4'
aS'3'
aS'1'
aS'0'
assS'paaABCDEFGHIJK'
p1406
(dp1407
S'Bordetella_pertussis'
p1408
(lp1409
S'1'
aS'0'
aS'4'
aS'0'
aS'2'
asS'Xanthomonas_axonopodis'
p1410
(lp1411
S'0'
aS'6'
aS'2'
aS'0'
aS'1'
asS'Escherichia_coli'
p1412
(lp1413
S'0'
aS'0'
aS'0'
aS'0'
aS'0'
asS'Pseudomonas_syringae'
p1414
(lp1415
S'0'
aS'5'
aS'4'
aS'0'
aS'1'
asS'Sinorhizobium_meliloti'
p1416
(lp1417
S'0'
aS'5'
aS'4'
aS'0'
aS'2'
asS'Vibrio_vulnificus'
p1418
(lp1419
S'0'
aS'6'
aS'3'
aS'0'
aS'1'
asS'Pseudomonas_putida'
p1420
(lp1421
S'0'
aS'0'
aS'0'
aS'10'
p1422
aS'0'
asS'Caulobacter_crescentus'
p1423
(lp1424
S'0'
aS'6'
aS'3'
aS'0'
aS'2'
asS'Bradyrhizobium_japonicum'
p1425
(lp1426
S'1'
aS'0'
aS'3'
aS'0'
aS'0'
asS'Shewanella_oneidensis'
p1427
(lp1428
S'1'
aS'5'
aS'4'
aS'0'
aS'2'
asS'Pseudomonas_aeruginosa'
p1429
(lp1430
S'0'
aS'4'
aS'3'
aS'0'
aS'1'
asS'Xanthomonas_campestris'
p1431
(lp1432
S'0'
aS'6'
aS'2'
aS'0'
aS'1'
asS'Agrobacterium_tumefaciens'
p1433
(lp1434
S'0'
aS'5'
aS'4'
aS'0'
aS'1'
asS'Vibrio_cholerae'
p1435
(lp1436
S'0'
aS'6'
aS'3'
aS'0'
aS'2'
asS'Mesorhizobium_loti'
p1437
(lp1438
S'0'
aS'6'
aS'3'
aS'0'
aS'2'
asS'Chromobacterium_violaceum'
p1439
(lp1440
S'0'
aS'4'
aS'4'
aS'0'
aS'1'
asS'Shigella_flexneri'
p1441
(lp1442
S'0'
aS'6'
aS'3'
aS'1'
aS'0'
asS'Bordetella_bronchiseptica'
p1443
(lp1444
S'1'
aS'0'
aS'3'
aS'0'
aS'1'
asS'Bordetella_parapertussis'
p1445
(lp1446
S'1'
aS'0'
aS'3'
aS'0'
aS'1'
asS'Ralstonia_solanacearum'
p1447
(lp1448
S'1'
aS'4'
aS'2'
aS'1'
aS'1'
asS'Vibrio_parahaemolyticus'
p1449
(lp1450
S'0'
aS'5'
aS'4'
aS'0'
aS'1'
asS'Yersinia_pestis'
p1451
(lp1452
S'0'
aS'6'
aS'3'
aS'1'
aS'1'
asS'Salmonella_enterica'
p1453
(lp1454
S'0'
aS'5'
aS'4'
aS'1'
aS'1'
asS'Nitrosomonas_europaea'
p1455
(lp1456
S'0'
aS'7'
aS'2'
aS'0'
aS'1'
assS'rnc-era-recO-pdxJ-acpS'
p1457
(dp1458
S'Bordetella_pertussis'
p1459
(lp1460
S'0'
aS'0'
aS'1'
aS'0'
aS'1'
asS'Xanthomonas_axonopodis'
p1461
(lp1462
S'0'
aS'1'
aS'1'
aS'0'
aS'1'
asS'Buchnera_aphidicola'
p1463
(lp1464
S'0'
aS'2'
aS'0'
aS'0'
aS'0'
asS'Pseudomonas_syringae'
p1465
(lp1466
S'0'
aS'1'
aS'0'
aS'0'
aS'0'
asS'Brucella_suis'
p1467
(lp1468
S'0'
aS'0'
aS'2'
aS'0'
aS'1'
asS'Vibrio_vulnificus'
p1469
(lp1470
S'0'
aS'0'
aS'0'
aS'0'
aS'0'
asS'Pseudomonas_putida'
p1471
(lp1472
S'0'
aS'1'
aS'0'
aS'0'
aS'0'
asS'Caulobacter_crescentus'
p1473
(lp1474
S'0'
aS'0'
aS'3'
aS'0'
aS'0'
asS'Bradyrhizobium_japonicum'
p1475
(lp1476
S'0'
aS'0'
aS'2'
aS'0'
aS'0'
asS'Brucella_melitensis'
p1477
(lp1478
S'0'
aS'0'
aS'2'
aS'0'
aS'1'
asS'Shewanella_oneidensis'
p1479
(lp1480
S'0'
aS'0'
aS'0'
aS'0'
aS'0'
asS'Pseudomonas_aeruginosa'
p1481
(lp1482
S'0'
aS'1'
aS'0'
aS'0'
aS'0'
asS'Neisseria_meningitidis'
p1483
(lp1484
S'0'
aS'0'
aS'2'
aS'0'
aS'0'
asS'Agrobacterium_tumefaciens'
p1485
(lp1486
S'0'
aS'1'
aS'2'
aS'0'
aS'1'
asS'Vibrio_cholerae'
p1487
(lp1488
S'0'
aS'0'
aS'0'
aS'0'
aS'0'
asS'Escherichia_coli'
p1489
(lp1490
S'0'
aS'0'
aS'0'
aS'0'
aS'0'
asS'Mesorhizobium_loti'
p1491
(lp1492
S'0'
aS'0'
aS'3'
aS'0'
aS'1'
asS'Chromobacterium_violaceum'
p1493
(lp1494
S'0'
aS'0'
aS'1'
aS'0'
aS'0'
asS'Haemophilus_influenzae'
p1495
(lp1496
S'0'
aS'2'
aS'1'
aS'0'
aS'1'
asS'Pasteurella_multocida'
p1497
(lp1498
S'0'
aS'2'
aS'1'
aS'0'
aS'0'
asS'Bordetella_bronchiseptica'
p1499
(lp1500
S'0'
aS'0'
aS'1'
aS'0'
aS'0'
asS'Bordetella_parapertussis'
p1501
(lp1502
S'0'
aS'0'
aS'1'
aS'0'
aS'1'
asS'Xanthomonas_campestris'
p1503
(lp1504
S'0'
aS'1'
aS'1'
aS'0'
aS'0'
asS'Ralstonia_solanacearum'
p1505
(lp1506
S'0'
aS'0'
aS'0'
aS'0'
aS'0'
asS'Vibrio_parahaemolyticus'
p1507
(lp1508
S'0'
aS'0'
aS'0'
aS'0'
aS'0'
asS'Yersinia_pestis'
p1509
(lp1510
S'0'
aS'0'
aS'1'
aS'0'
aS'1'
asS'Candidatus_Blochmannia'
p1511
(lp1512
S'0'
aS'1'
aS'1'
aS'0'
aS'0'
asS'Salmonella_enterica'
p1513
(lp1514
S'0'
aS'0'
aS'0'
aS'0'
aS'0'
asS'Sinorhizobium_meliloti'
p1515
(lp1516
S'0'
aS'0'
aS'3'
aS'0'
aS'1'
asS'Shigella_flexneri'
p1517
(lp1518
S'0'
aS'0'
aS'0'
aS'0'
aS'0'
asS'Nitrosomonas_europaea'
p1519
(lp1520
S'0'
aS'1'
aS'0'
aS'0'
aS'0'
asS'Xylella_fastidiosa'
p1521
(lp1522
S'0'
aS'1'
aS'1'
aS'0'
aS'0'
assS'atpIBEFHAGDC'
p1523
(dp1524
S'Campylobacter_jejuni'
p1525
(lp1526
S'0'
aS'4'
aS'1'
aS'0'
aS'1'
asS'Bordetella_pertussis'
p1527
(lp1528
S'0'
aS'1'
aS'0'
aS'0'
aS'0'
asS'Xanthomonas_axonopodis'
p1529
(lp1530
S'0'
aS'1'
aS'0'
aS'0'
aS'0'
asS'Buchnera_aphidicola'
p1531
(lp1532
S'0'
aS'1'
aS'0'
aS'0'
aS'0'
asS'Pseudomonas_syringae'
p1533
(lp1534
S'0'
aS'1'
aS'0'
aS'0'
aS'0'
asS'Brucella_suis'
p1535
(lp1536
S'0'
aS'3'
aS'1'
aS'0'
aS'1'
asS'Vibrio_vulnificus'
p1537
(lp1538
S'0'
aS'0'
aS'0'
aS'0'
aS'0'
asS'Pseudomonas_putida'
p1539
(lp1540
S'0'
aS'1'
aS'0'
aS'0'
aS'0'
asS'Wolinella_succinogenes'
p1541
(lp1542
S'0'
aS'4'
aS'1'
aS'0'
aS'0'
asS'Caulobacter_crescentus'
p1543
(lp1544
S'0'
aS'3'
aS'1'
aS'0'
aS'0'
asS'Candidatus_Blochmannia'
p1545
(lp1546
S'0'
aS'1'
aS'0'
aS'0'
aS'0'
asS'Bradyrhizobium_japonicum'
p1547
(lp1548
S'0'
aS'3'
aS'1'
aS'0'
aS'0'
asS'Brucella_melitensis'
p1549
(lp1550
S'0'
aS'3'
aS'1'
aS'0'
aS'1'
asS'Shewanella_oneidensis'
p1551
(lp1552
S'0'
aS'0'
aS'0'
aS'0'
aS'0'
asS'Pseudomonas_aeruginosa'
p1553
(lp1554
S'0'
aS'1'
aS'0'
aS'0'
aS'0'
asS'Helicobacter_hepaticus'
p1555
(lp1556
S'0'
aS'4'
aS'1'
aS'0'
aS'0'
asS'Agrobacterium_tumefaciens'
p1557
(lp1558
S'0'
aS'4'
aS'1'
aS'0'
aS'1'
asS'Vibrio_cholerae'
p1559
(lp1560
S'0'
aS'1'
aS'0'
aS'0'
aS'0'
asS'Escherichia_coli'
p1561
(lp1562
S'0'
aS'0'
aS'0'
aS'0'
aS'0'
asS'Mesorhizobium_loti'
p1563
(lp1564
S'0'
aS'4'
aS'1'
aS'0'
aS'1'
asS'Chromobacterium_violaceum'
p1565
(lp1566
S'0'
aS'1'
aS'0'
aS'0'
aS'0'
asS'Haemophilus_influenzae'
p1567
(lp1568
S'0'
aS'1'
aS'0'
aS'0'
aS'0'
asS'Pasteurella_multocida'
p1569
(lp1570
S'0'
aS'1'
aS'0'
aS'0'
aS'0'
asS'Bordetella_bronchiseptica'
p1571
(lp1572
S'0'
aS'1'
aS'0'
aS'0'
aS'0'
asS'Bordetella_parapertussis'
p1573
(lp1574
S'0'
aS'1'
aS'0'
aS'0'
aS'0'
asS'Xanthomonas_campestris'
p1575
(lp1576
S'0'
aS'1'
aS'0'
aS'0'
aS'0'
asS'Ralstonia_solanacearum'
p1577
(lp1578
S'0'
aS'1'
aS'0'
aS'0'
aS'0'
asS'Vibrio_parahaemolyticus'
p1579
(lp1580
S'0'
aS'0'
aS'0'
aS'0'
aS'0'
asS'Yersinia_pestis'
p1581
(lp1582
S'0'
aS'0'
aS'0'
aS'0'
aS'0'
asS'Neisseria_meningitidis'
p1583
(lp1584
S'0'
aS'1'
aS'0'
aS'0'
aS'0'
asS'Salmonella_enterica'
p1585
(lp1586
S'0'
aS'0'
aS'0'
aS'0'
aS'0'
asS'Sinorhizobium_meliloti'
p1587
(lp1588
S'0'
aS'4'
aS'1'
aS'0'
aS'1'
asS'Shigella_flexneri'
p1589
(lp1590
S'0'
aS'0'
aS'0'
aS'0'
aS'0'
asS'Nitrosomonas_europaea'
p1591
(lp1592
S'0'
aS'1'
aS'0'
aS'0'
aS'0'
asS'Xylella_fastidiosa'
p1593
(lp1594
S'0'
aS'1'
aS'0'
aS'0'
aS'0'
assS'ivbL-ilvBN-uhpABC'
p1595
(dp1596
S'Bordetella_pertussis'
p1597
(lp1598
S'0'
aS'2'
aS'1'
aS'0'
aS'1'
asS'Xanthomonas_axonopodis'
p1599
(lp1600
S'0'
aS'1'
aS'2'
aS'0'
aS'0'
asS'Escherichia_coli'
p1601
(lp1602
S'1'
aS'-1'
p1603
aS'0'
aS'2'
aS'0'
asS'Pseudomonas_syringae'
p1604
(lp1605
S'0'
aS'0'
aS'2'
aS'0'
aS'0'
asS'Sinorhizobium_meliloti'
p1606
(lp1607
S'0'
aS'2'
aS'1'
aS'0'
aS'0'
asS'Vibrio_vulnificus'
p1608
(lp1609
S'0'
aS'1'
aS'1'
aS'0'
aS'1'
asS'Pseudomonas_putida'
p1610
(lp1611
S'0'
aS'0'
aS'2'
aS'0'
aS'1'
asS'Wolinella_succinogenes'
p1612
(lp1613
S'0'
aS'2'
aS'1'
aS'0'
aS'0'
asS'Caulobacter_crescentus'
p1614
(lp1615
S'1'
aS'1'
aS'2'
aS'1'
aS'1'
asS'Bradyrhizobium_japonicum'
p1616
(lp1617
S'1'
aS'0'
aS'3'
aS'1'
aS'2'
asS'Brucella_melitensis'
p1618
(lp1619
S'0'
aS'1'
aS'2'
aS'0'
aS'1'
asS'Shewanella_oneidensis'
p1620
(lp1621
S'0'
aS'1'
aS'1'
aS'0'
aS'0'
asS'Pseudomonas_aeruginosa'
p1622
(lp1623
S'0'
aS'0'
aS'1'
aS'0'
aS'1'
asS'Xanthomonas_campestris'
p1624
(lp1625
S'0'
aS'1'
aS'2'
aS'0'
aS'1'
asS'Agrobacterium_tumefaciens'
p1626
(lp1627
S'0'
aS'1'
aS'2'
aS'0'
aS'1'
asS'Vibrio_cholerae'
p1628
(lp1629
S'0'
aS'1'
aS'1'
aS'0'
aS'1'
asS'Buchnera_aphidicola'
p1630
(lp1631
S'0'
aS'3'
aS'0'
aS'0'
aS'0'
asS'Mesorhizobium_loti'
p1632
(lp1633
S'0'
aS'2'
aS'1'
aS'0'
aS'0'
asS'Chromobacterium_violaceum'
p1634
(lp1635
S'0'
aS'1'
aS'2'
aS'0'
aS'0'
asS'Haemophilus_influenzae'
p1636
(lp1637
S'0'
aS'1'
aS'2'
aS'0'
aS'1'
asS'Pasteurella_multocida'
p1638
(lp1639
S'1'
aS'0'
aS'1'
aS'1'
aS'0'
asS'Bordetella_bronchiseptica'
p1640
(lp1641
S'0'
aS'0'
aS'3'
aS'0'
aS'1'
asS'Bordetella_parapertussis'
p1642
(lp1643
S'0'
aS'0'
aS'3'
aS'0'
aS'2'
asS'Ralstonia_solanacearum'
p1644
(lp1645
S'0'
aS'0'
aS'2'
aS'0'
aS'1'
asS'Vibrio_parahaemolyticus'
p1646
(lp1647
S'0'
aS'0'
aS'2'
aS'0'
aS'1'
asS'Yersinia_pestis'
p1648
(lp1649
S'0'
aS'0'
aS'3'
aS'0'
aS'1'
asS'Helicobacter_hepaticus'
p1650
(lp1651
S'0'
aS'1'
aS'2'
aS'0'
aS'0'
asS'Salmonella_enterica'
p1652
(lp1653
S'1'
aS'0'
aS'1'
aS'2'
aS'0'
asS'Shigella_flexneri'
p1654
(lp1655
S'1'
aS'-1'
p1656
aS'0'
aS'2'
aS'0'
asS'Nitrosomonas_europaea'
p1657
(lp1658
S'0'
aS'1'
aS'2'
aS'0'
aS'1'
asS'Xylella_fastidiosa'
p1659
(lp1660
S'1'
aS'3'
aS'1'
aS'1'
aS'1'
assS'bamA-hlpA-lpxD-fabZ-lpxAB-rnhB-dnaE'
p1661
(dp1662
S'Campylobacter_jejuni'
p1663
(lp1664
S'0'
aS'1'
aS'5'
aS'0'
aS'3'
asS'Bordetella_pertussis'
p1665
(lp1666
S'0'
aS'0'
aS'1'
aS'0'
aS'1'
asS'Xanthomonas_axonopodis'
p1667
(lp1668
S'0'
aS'1'
aS'0'
aS'0'
aS'0'
asS'Buchnera_aphidicola'
p1669
(lp1670
S'0'
aS'4'
aS'1'
aS'0'
aS'1'
asS'Pseudomonas_syringae'
p1671
(lp1672
S'0'
aS'1'
aS'1'
aS'0'
aS'0'
asS'Brucella_suis'
p1673
(lp1674
S'0'
aS'1'
aS'3'
aS'0'
aS'1'
asS'Vibrio_vulnificus'
p1675
(lp1676
S'0'
aS'0'
aS'0'
aS'0'
aS'0'
asS'Pseudomonas_putida'
p1677
(lp1678
S'0'
aS'1'
aS'1'
aS'0'
aS'0'
asS'Wolinella_succinogenes'
p1679
(lp1680
S'0'
aS'1'
aS'5'
aS'0'
aS'3'
asS'Caulobacter_crescentus'
p1681
(lp1682
S'0'
aS'1'
aS'4'
aS'0'
aS'0'
asS'Candidatus_Blochmannia'
p1683
(lp1684
S'0'
aS'0'
aS'0'
aS'0'
aS'0'
asS'Bradyrhizobium_japonicum'
p1685
(lp1686
S'0'
aS'1'
aS'4'
aS'0'
aS'1'
asS'Brucella_melitensis'
p1687
(lp1688
S'0'
aS'1'
aS'3'
aS'0'
aS'1'
asS'Shewanella_oneidensis'
p1689
(lp1690
S'0'
aS'1'
aS'1'
aS'0'
aS'0'
asS'Pseudomonas_aeruginosa'
p1691
(lp1692
S'0'
aS'1'
aS'2'
aS'0'
aS'0'
asS'Helicobacter_hepaticus'
p1693
(lp1694
S'0'
aS'1'
aS'5'
aS'0'
aS'3'
asS'Agrobacterium_tumefaciens'
p1695
(lp1696
S'0'
aS'1'
aS'3'
aS'0'
aS'1'
asS'Vibrio_cholerae'
p1697
(lp1698
S'0'
aS'0'
aS'0'
aS'0'
aS'0'
asS'Escherichia_coli'
p1699
(lp1700
S'0'
aS'0'
aS'0'
aS'0'
aS'0'
asS'Mesorhizobium_loti'
p1701
(lp1702
S'1'
aS'1'
aS'4'
aS'2'
aS'0'
asS'Chromobacterium_violaceum'
p1703
(lp1704
S'0'
aS'0'
aS'1'
aS'0'
aS'1'
asS'Haemophilus_influenzae'
p1705
(lp1706
S'0'
aS'0'
aS'2'
aS'0'
aS'0'
asS'Pasteurella_multocida'
p1707
(lp1708
S'0'
aS'0'
aS'1'
aS'0'
aS'0'
asS'Bordetella_bronchiseptica'
p1709
(lp1710
S'0'
aS'0'
aS'1'
aS'0'
aS'1'
asS'Bordetella_parapertussis'
p1711
(lp1712
S'0'
aS'0'
aS'1'
aS'0'
aS'0'
asS'Xanthomonas_campestris'
p1713
(lp1714
S'0'
aS'1'
aS'0'
aS'0'
aS'0'
asS'Ralstonia_solanacearum'
p1715
(lp1716
S'0'
aS'0'
aS'1'
aS'0'
aS'1'
asS'Vibrio_parahaemolyticus'
p1717
(lp1718
S'0'
aS'0'
aS'0'
aS'0'
aS'0'
asS'Yersinia_pestis'
p1719
(lp1720
S'0'
aS'0'
aS'0'
aS'0'
aS'0'
asS'Neisseria_meningitidis'
p1721
(lp1722
S'0'
aS'0'
aS'3'
aS'0'
aS'2'
asS'Salmonella_enterica'
p1723
(lp1724
S'0'
aS'0'
aS'0'
aS'0'
aS'0'
asS'Sinorhizobium_meliloti'
p1725
(lp1726
S'0'
aS'1'
aS'3'
aS'0'
aS'1'
asS'Shigella_flexneri'
p1727
(lp1728
S'0'
aS'0'
aS'0'
aS'0'
aS'0'
asS'Nitrosomonas_europaea'
p1729
(lp1730
S'0'
aS'2'
aS'2'
aS'0'
aS'1'
asS'Xylella_fastidiosa'
p1731
(lp1732
S'0'
aS'1'
aS'1'
aS'0'
aS'0'
assS'gcl-hyi-glxR-ybbVW-allB-ybbY-glxK'
p1733
(dp1734
S'Ralstonia_solanacearum'
p1735
(lp1736
S'0'
aS'3'
aS'2'
aS'0'
aS'0'
asS'Bradyrhizobium_japonicum'
p1737
(lp1738
S'0'
aS'4'
aS'1'
aS'0'
aS'1'
asS'Escherichia_coli'
p1739
(lp1740
S'0'
aS'1'
aS'0'
aS'0'
aS'0'
asS'Mesorhizobium_loti'
p1741
(lp1742
S'0'
aS'3'
aS'2'
aS'0'
aS'0'
asS'Salmonella_enterica'
p1743
(lp1744
S'0'
aS'2'
aS'1'
aS'0'
aS'0'
asS'Bordetella_bronchiseptica'
p1745
(lp1746
S'0'
aS'3'
aS'3'
aS'0'
aS'1'
asS'Shigella_flexneri'
p1747
(lp1748
S'0'
aS'4'
aS'1'
aS'0'
aS'1'
asS'Pseudomonas_putida'
p1749
(lp1750
S'0'
aS'2'
aS'3'
aS'0'
aS'1'
asS'Pseudomonas_aeruginosa'
p1751
(lp1752
S'0'
aS'2'
aS'3'
aS'0'
aS'2'
asS'Bordetella_parapertussis'
p1753
(lp1754
S'0'
aS'4'
aS'2'
aS'0'
aS'1'
assS'hisLGDCBHAFI'
p1755
(dp1756
S'Campylobacter_jejuni'
p1757
(lp1758
S'0'
aS'0'
aS'2'
aS'0'
aS'0'
asS'Bordetella_pertussis'
p1759
(lp1760
S'1'
aS'0'
aS'0'
aS'2'
aS'0'
asS'Xanthomonas_axonopodis'
p1761
(lp1762
S'0'
aS'0'
aS'0'
aS'0'
aS'0'
asS'Buchnera_aphidicola'
p1763
(lp1764
S'0'
aS'0'
aS'0'
aS'0'
aS'0'
asS'Pseudomonas_syringae'
p1765
(lp1766
S'1'
aS'0'
aS'2'
aS'1'
aS'1'
asS'Brucella_suis'
p1767
(lp1768
S'0'
aS'1'
aS'3'
aS'0'
aS'1'
asS'Vibrio_vulnificus'
p1769
(lp1770
S'0'
aS'0'
aS'0'
aS'0'
aS'0'
asS'Pseudomonas_putida'
p1771
(lp1772
S'1'
aS'0'
aS'2'
aS'1'
aS'0'
asS'Wolinella_succinogenes'
p1773
(lp1774
S'0'
aS'0'
aS'6'
aS'0'
aS'2'
asS'Caulobacter_crescentus'
p1775
(lp1776
S'0'
aS'0'
aS'3'
aS'0'
aS'1'
asS'Bradyrhizobium_japonicum'
p1777
(lp1778
S'0'
aS'0'
aS'4'
aS'0'
aS'0'
asS'Brucella_melitensis'
p1779
(lp1780
S'0'
aS'1'
aS'3'
aS'0'
aS'1'
asS'Shewanella_oneidensis'
p1781
(lp1782
S'0'
aS'0'
aS'0'
aS'0'
aS'0'
asS'Pseudomonas_aeruginosa'
p1783
(lp1784
S'1'
aS'0'
aS'2'
aS'1'
aS'1'
asS'Neisseria_meningitidis'
p1785
(lp1786
S'0'
aS'0'
aS'2'
aS'0'
aS'1'
asS'Agrobacterium_tumefaciens'
p1787
(lp1788
S'0'
aS'1'
aS'3'
aS'0'
aS'0'
asS'Vibrio_cholerae'
p1789
(lp1790
S'0'
aS'0'
aS'0'
aS'0'
aS'0'
asS'Escherichia_coli'
p1791
(lp1792
S'0'
aS'0'
aS'0'
aS'0'
aS'0'
asS'Mesorhizobium_loti'
p1793
(lp1794
S'0'
aS'1'
aS'3'
aS'0'
aS'2'
asS'Chromobacterium_violaceum'
p1795
(lp1796
S'0'
aS'0'
aS'1'
aS'0'
aS'0'
asS'Haemophilus_influenzae'
p1797
(lp1798
S'0'
aS'0'
aS'0'
aS'0'
aS'0'
asS'Pasteurella_multocida'
p1799
(lp1800
S'0'
aS'0'
aS'2'
aS'0'
aS'0'
asS'Bordetella_bronchiseptica'
p1801
(lp1802
S'1'
aS'0'
aS'0'
aS'2'
aS'0'
asS'Bordetella_parapertussis'
p1803
(lp1804
S'1'
aS'0'
aS'0'
aS'2'
aS'0'
asS'Xanthomonas_campestris'
p1805
(lp1806
S'0'
aS'0'
aS'0'
aS'0'
aS'0'
asS'Ralstonia_solanacearum'
p1807
(lp1808
S'1'
aS'1'
aS'1'
aS'2'
aS'0'
asS'Vibrio_parahaemolyticus'
p1809
(lp1810
S'0'
aS'0'
aS'0'
aS'0'
aS'0'
asS'Yersinia_pestis'
p1811
(lp1812
S'0'
aS'0'
aS'0'
aS'0'
aS'0'
asS'Candidatus_Blochmannia'
p1813
(lp1814
S'0'
aS'0'
aS'0'
aS'0'
aS'0'
asS'Salmonella_enterica'
p1815
(lp1816
S'0'
aS'0'
aS'0'
aS'0'
aS'0'
asS'Sinorhizobium_meliloti'
p1817
(lp1818
S'0'
aS'1'
aS'2'
aS'0'
aS'1'
asS'Shigella_flexneri'
p1819
(lp1820
S'0'
aS'0'
aS'0'
aS'0'
aS'0'
asS'Nitrosomonas_europaea'
p1821
(lp1822
S'1'
aS'0'
aS'1'
aS'2'
aS'1'
asS'Xylella_fastidiosa'
p1823
(lp1824
S'0'
aS'0'
aS'0'
aS'0'
aS'0'
assS'fucPIKUR'
p1825
(dp1826
S'Vibrio_parahaemolyticus'
p1827
(lp1828
S'0'
aS'3'
aS'0'
aS'0'
aS'0'
asS'Escherichia_coli'
p1829
(lp1830
S'0'
aS'0'
aS'0'
aS'0'
aS'0'
asS'Vibrio_vulnificus'
p1831
(lp1832
S'0'
aS'3'
aS'0'
aS'0'
aS'0'
asS'Sinorhizobium_meliloti'
p1833
(lp1834
S'1'
aS'2'
aS'2'
aS'1'
aS'1'
asS'Haemophilus_influenzae'
p1835
(lp1836
S'0'
aS'0'
aS'1'
aS'0'
aS'0'
asS'Shigella_flexneri'
p1837
(lp1838
S'0'
aS'0'
aS'2'
aS'0'
aS'0'
asS'Salmonella_enterica'
p1839
(lp1840
S'0'
aS'0'
aS'0'
aS'0'
aS'0'
asS'Pseudomonas_putida'
p1841
(lp1842
S'0'
aS'3'
aS'0'
aS'0'
aS'0'
asS'Pseudomonas_aeruginosa'
p1843
(lp1844
S'0'
aS'3'
aS'0'
aS'0'
aS'0'
asS'Pseudomonas_syringae'
p1845
(lp1846
S'0'
aS'3'
aS'0'
aS'0'
aS'0'
assS'trpLEDCBA'
p1847
(dp1848
S'Campylobacter_jejuni'
p1849
(lp1850
S'0'
aS'0'
aS'0'
aS'0'
aS'0'
asS'Bordetella_pertussis'
p1851
(lp1852
S'1'
aS'0'
aS'1'
aS'2'
aS'1'
asS'Xanthomonas_axonopodis'
p1853
(lp1854
S'0'
aS'0'
aS'2'
aS'0'
aS'1'
asS'Buchnera_aphidicola'
p1855
(lp1856
S'0'
aS'2'
aS'1'
aS'0'
aS'0'
asS'Pseudomonas_syringae'
p1857
(lp1858
S'1'
aS'0'
aS'2'
aS'1'
aS'0'
asS'Brucella_suis'
p1859
(lp1860
S'1'
aS'0'
aS'2'
aS'0'
aS'1'
asS'Vibrio_vulnificus'
p1861
(lp1862
S'1'
aS'0'
aS'0'
aS'2'
aS'0'
asS'Pseudomonas_putida'
p1863
(lp1864
S'1'
aS'0'
aS'2'
aS'1'
aS'1'
asS'Caulobacter_crescentus'
p1865
(lp1866
S'2'
aS'0'
aS'1'
aS'1'
aS'1'
asS'Candidatus_Blochmannia'
p1867
(lp1868
S'1'
aS'0'
aS'0'
aS'2'
aS'0'
asS'Bradyrhizobium_japonicum'
p1869
(lp1870
S'0'
aS'0'
aS'1'
aS'0'
aS'1'
asS'Brucella_melitensis'
p1871
(lp1872
S'1'
aS'0'
aS'2'
aS'0'
aS'1'
asS'Shewanella_oneidensis'
p1873
(lp1874
S'1'
aS'0'
aS'0'
aS'2'
aS'0'
asS'Pseudomonas_aeruginosa'
p1875
(lp1876
S'2'
aS'0'
aS'2'
aS'1'
aS'1'
asS'Helicobacter_hepaticus'
p1877
(lp1878
S'0'
aS'1'
aS'1'
aS'0'
aS'0'
asS'Agrobacterium_tumefaciens'
p1879
(lp1880
S'1'
aS'0'
aS'2'
aS'0'
aS'1'
asS'Vibrio_cholerae'
p1881
(lp1882
S'1'
aS'0'
aS'0'
aS'2'
aS'0'
asS'Escherichia_coli'
p1883
(lp1884
S'0'
aS'0'
aS'0'
aS'0'
aS'0'
asS'Mesorhizobium_loti'
p1885
(lp1886
S'1'
aS'0'
aS'2'
aS'0'
aS'0'
asS'Chromobacterium_violaceum'
p1887
(lp1888
S'1'
aS'0'
aS'2'
aS'0'
aS'0'
asS'Haemophilus_influenzae'
p1889
(lp1890
S'1'
aS'0'
aS'1'
aS'0'
aS'0'
asS'Pasteurella_multocida'
p1891
(lp1892
S'1'
aS'0'
aS'2'
aS'0'
aS'0'
asS'Bordetella_bronchiseptica'
p1893
(lp1894
S'1'
aS'0'
aS'1'
aS'2'
aS'1'
asS'Bordetella_parapertussis'
p1895
(lp1896
S'1'
aS'0'
aS'1'
aS'2'
aS'1'
asS'Xanthomonas_campestris'
p1897
(lp1898
S'0'
aS'0'
aS'3'
aS'0'
aS'0'
asS'Ralstonia_solanacearum'
p1899
(lp1900
S'2'
aS'0'
aS'2'
aS'0'
aS'1'
asS'Vibrio_parahaemolyticus'
p1901
(lp1902
S'1'
aS'0'
aS'0'
aS'2'
aS'0'
asS'Yersinia_pestis'
p1903
(lp1904
S'1'
aS'0'
aS'0'
aS'2'
aS'0'
asS'Neisseria_meningitidis'
p1905
(lp1906
S'1'
aS'0'
aS'4'
aS'1'
aS'2'
asS'Salmonella_enterica'
p1907
(lp1908
S'0'
aS'0'
aS'0'
aS'0'
aS'0'
asS'Sinorhizobium_meliloti'
p1909
(lp1910
S'1'
aS'0'
aS'2'
aS'0'
aS'1'
asS'Shigella_flexneri'
p1911
(lp1912
S'0'
aS'0'
aS'0'
aS'0'
aS'0'
asS'Nitrosomonas_europaea'
p1913
(lp1914
S'2'
aS'0'
aS'2'
aS'1'
aS'1'
asS'Xylella_fastidiosa'
p1915
(lp1916
S'1'
aS'0'
aS'1'
aS'2'
aS'0'
assS'waaQGP-rfaS-waaBIJY-rfaZ-waaK'
p1917
(dp1918
S'Escherichia_coli'
p1919
(lp1920
S'0'
aS'0'
aS'0'
aS'0'
aS'0'
asS'Chromobacterium_violaceum'
p1921
(lp1922
S'0'
aS'7'
aS'1'
aS'0'
aS'0'
asS'Sinorhizobium_meliloti'
p1923
(lp1924
S'0'
aS'8'
aS'0'
aS'0'
aS'0'
asS'Pasteurella_multocida'
p1925
(lp1926
S'0'
aS'5'
aS'3'
aS'1'
aS'2'
asS'Vibrio_vulnificus'
p1927
(lp1928
S'0'
aS'7'
aS'1'
aS'0'
aS'0'
asS'Pseudomonas_putida'
p1929
(lp1930
S'1'
aS'6'
aS'1'
aS'2'
aS'0'
asS'Wolinella_succinogenes'
p1931
(lp1932
S'0'
aS'7'
aS'1'
aS'0'
aS'0'
asS'Vibrio_parahaemolyticus'
p1933
(lp1934
S'0'
aS'7'
aS'1'
aS'0'
aS'0'
asS'Shigella_flexneri'
p1935
(lp1936
S'1'
aS'4'
aS'0'
aS'2'
aS'0'
asS'Salmonella_enterica'
p1937
(lp1938
S'0'
aS'2'
aS'1'
aS'0'
aS'0'
asS'Shewanella_oneidensis'
p1939
(lp1940
S'0'
aS'7'
aS'1'
aS'0'
aS'1'
asS'Pseudomonas_aeruginosa'
p1941
(lp1942
S'0'
aS'6'
aS'1'
aS'0'
aS'0'
asS'Pseudomonas_syringae'
p1943
(lp1944
S'0'
aS'6'
aS'1'
aS'0'
aS'0'
assS'livKHMGF'
p1945
(dp1946
S'Campylobacter_jejuni'
p1947
(lp1948
S'1'
aS'0'
aS'0'
aS'2'
aS'0'
asS'Bordetella_pertussis'
p1949
(lp1950
S'0'
aS'0'
aS'0'
aS'0'
aS'0'
asS'Buchnera_aphidicola'
p1951
(lp1952
S'1'
aS'3'
aS'1'
aS'1'
aS'1'
asS'Pseudomonas_syringae'
p1953
(lp1954
S'0'
aS'0'
aS'0'
aS'0'
aS'0'
asS'Brucella_suis'
p1955
(lp1956
S'2'
aS'0'
aS'2'
aS'1'
aS'2'
asS'Vibrio_vulnificus'
p1957
(lp1958
S'0'
aS'3'
aS'0'
aS'0'
aS'0'
asS'Pseudomonas_putida'
p1959
(lp1960
S'0'
aS'0'
aS'0'
aS'0'
aS'0'
asS'Wolinella_succinogenes'
p1961
(lp1962
S'0'
aS'0'
aS'0'
aS'0'
aS'0'
asS'Caulobacter_crescentus'
p1963
(lp1964
S'0'
aS'3'
aS'0'
aS'0'
aS'0'
asS'Bradyrhizobium_japonicum'
p1965
(lp1966
S'0'
aS'0'
aS'0'
aS'0'
aS'0'
asS'Brucella_melitensis'
p1967
(lp1968
S'0'
aS'0'
aS'1'
aS'0'
aS'0'
asS'Shewanella_oneidensis'
p1969
(lp1970
S'0'
aS'3'
aS'0'
aS'0'
aS'0'
asS'Pseudomonas_aeruginosa'
p1971
(lp1972
S'0'
aS'0'
aS'0'
aS'0'
aS'0'
asS'Helicobacter_hepaticus'
p1973
(lp1974
S'0'
aS'3'
aS'0'
aS'0'
aS'0'
asS'Agrobacterium_tumefaciens'
p1975
(lp1976
S'0'
aS'0'
aS'1'
aS'0'
aS'0'
asS'Vibrio_cholerae'
p1977
(lp1978
S'0'
aS'3'
aS'0'
aS'0'
aS'0'
asS'Escherichia_coli'
p1979
(lp1980
S'0'
aS'0'
aS'0'
aS'0'
aS'0'
asS'Mesorhizobium_loti'
p1981
(lp1982
S'3'
aS'0'
aS'1'
aS'2'
aS'0'
asS'Chromobacterium_violaceum'
p1983
(lp1984
S'0'
aS'0'
aS'1'
aS'0'
aS'0'
asS'Haemophilus_influenzae'
p1985
(lp1986
S'0'
aS'3'
aS'0'
aS'0'
aS'0'
asS'Pasteurella_multocida'
p1987
(lp1988
S'0'
aS'3'
aS'0'
aS'0'
aS'0'
asS'Bordetella_bronchiseptica'
p1989
(lp1990
S'0'
aS'0'
aS'0'
aS'0'
aS'0'
asS'Bordetella_parapertussis'
p1991
(lp1992
S'0'
aS'0'
aS'0'
aS'2'
aS'0'
asS'Ralstonia_solanacearum'
p1993
(lp1994
S'0'
aS'0'
aS'0'
aS'0'
aS'0'
asS'Vibrio_parahaemolyticus'
p1995
(lp1996
S'0'
aS'3'
aS'0'
aS'0'
aS'0'
asS'Yersinia_pestis'
p1997
(lp1998
S'0'
aS'0'
aS'0'
aS'0'
aS'0'
asS'Salmonella_enterica'
p1999
(lp2000
S'0'
aS'0'
aS'0'
aS'0'
aS'0'
asS'Sinorhizobium_meliloti'
p2001
(lp2002
S'0'
aS'0'
aS'0'
aS'0'
aS'0'
asS'Shigella_flexneri'
p2003
(lp2004
S'0'
aS'0'
aS'0'
aS'0'
aS'0'
assS'hypABCDE-fhlA'
p2005
(dp2006
S'Campylobacter_jejuni'
p2007
(lp2008
S'0'
aS'1'
aS'1'
aS'1'
aS'1'
asS'Bradyrhizobium_japonicum'
p2009
(lp2010
S'0'
aS'0'
aS'2'
aS'0'
aS'1'
asS'Wolinella_succinogenes'
p2011
(lp2012
S'0'
aS'2'
aS'2'
aS'0'
aS'0'
asS'Escherichia_coli'
p2013
(lp2014
S'0'
aS'0'
aS'0'
aS'0'
aS'0'
asS'Salmonella_enterica'
p2015
(lp2016
S'0'
aS'0'
aS'0'
aS'0'
aS'0'
asS'Shewanella_oneidensis'
p2017
(lp2018
S'0'
aS'0'
aS'1'
aS'1'
aS'0'
asS'Shigella_flexneri'
p2019
(lp2020
S'0'
aS'0'
aS'0'
aS'0'
aS'0'
asS'Pseudomonas_syringae'
p2021
(lp2022
S'1'
aS'4'
aS'1'
aS'1'
aS'1'
asS'Bordetella_bronchiseptica'
p2023
(lp2024
S'1'
aS'4'
aS'1'
aS'0'
aS'0'
asS'Helicobacter_hepaticus'
p2025
(lp2026
S'0'
aS'0'
aS'4'
aS'0'
aS'2'
assS'ybgIJKL-nei'
p2027
(dp2028
S'Campylobacter_jejuni'
p2029
(lp2030
S'0'
aS'1'
aS'1'
aS'1'
aS'0'
asS'Bordetella_pertussis'
p2031
(lp2032
S'0'
aS'1'
aS'2'
aS'0'
aS'1'
asS'Escherichia_coli'
p2033
(lp2034
S'0'
aS'0'
aS'0'
aS'0'
aS'0'
asS'Chromobacterium_violaceum'
p2035
(lp2036
S'1'
aS'0'
aS'2'
aS'2'
aS'1'
asS'Pseudomonas_putida'
p2037
(lp2038
S'0'
aS'1'
aS'1'
aS'1'
aS'0'
asS'Shigella_flexneri'
p2039
(lp2040
S'0'
aS'1'
aS'1'
aS'0'
aS'0'
asS'Pseudomonas_syringae'
p2041
(lp2042
S'0'
aS'0'
aS'2'
aS'0'
aS'1'
asS'Bordetella_bronchiseptica'
p2043
(lp2044
S'0'
aS'0'
aS'2'
aS'0'
aS'1'
asS'Bordetella_parapertussis'
p2045
(lp2046
S'0'
aS'0'
aS'2'
aS'0'
aS'1'
asS'Ralstonia_solanacearum'
p2047
(lp2048
S'0'
aS'1'
aS'1'
aS'0'
aS'0'
asS'Bradyrhizobium_japonicum'
p2049
(lp2050
S'0'
aS'1'
aS'1'
aS'0'
aS'0'
asS'Yersinia_pestis'
p2051
(lp2052
S'0'
aS'2'
aS'1'
aS'0'
aS'0'
asS'Salmonella_enterica'
p2053
(lp2054
S'0'
aS'0'
aS'1'
aS'0'
aS'0'
asS'Haemophilus_influenzae'
p2055
(lp2056
S'0'
aS'0'
aS'2'
aS'0'
aS'1'
asS'Pseudomonas_aeruginosa'
p2057
(lp2058
S'0'
aS'1'
aS'1'
aS'1'
aS'0'
assS'yjeFE-amiB-mutL-miaA-hfq-hflXKC'
p2059
(dp2060
S'Bordetella_pertussis'
p2061
(lp2062
S'0'
aS'0'
aS'3'
aS'0'
aS'0'
asS'Xanthomonas_axonopodis'
p2063
(lp2064
S'0'
aS'0'
aS'2'
aS'0'
aS'1'
asS'Buchnera_aphidicola'
p2065
(lp2066
S'0'
aS'3'
aS'2'
aS'0'
aS'1'
asS'Pseudomonas_syringae'
p2067
(lp2068
S'0'
aS'0'
aS'0'
aS'0'
aS'0'
asS'Brucella_suis'
p2069
(lp2070
S'0'
aS'1'
aS'5'
aS'0'
aS'3'
asS'Vibrio_vulnificus'
p2071
(lp2072
S'0'
aS'1'
aS'0'
aS'0'
aS'0'
asS'Pseudomonas_putida'
p2073
(lp2074
S'0'
aS'0'
aS'0'
aS'0'
aS'0'
asS'Caulobacter_crescentus'
p2075
(lp2076
S'0'
aS'1'
aS'6'
aS'0'
aS'3'
asS'Bradyrhizobium_japonicum'
p2077
(lp2078
S'0'
aS'0'
aS'6'
aS'0'
aS'3'
asS'Brucella_melitensis'
p2079
(lp2080
S'0'
aS'1'
aS'5'
aS'0'
aS'3'
asS'Shewanella_oneidensis'
p2081
(lp2082
S'0'
aS'0'
aS'0'
aS'0'
aS'0'
asS'Pseudomonas_aeruginosa'
p2083
(lp2084
S'0'
aS'0'
aS'0'
aS'0'
aS'0'
asS'Neisseria_meningitidis'
p2085
(lp2086
S'0'
aS'1'
aS'6'
aS'0'
aS'3'
asS'Agrobacterium_tumefaciens'
p2087
(lp2088
S'0'
aS'0'
aS'6'
aS'0'
aS'2'
asS'Vibrio_cholerae'
p2089
(lp2090
S'0'
aS'1'
aS'0'
aS'0'
aS'0'
asS'Escherichia_coli'
p2091
(lp2092
S'0'
aS'0'
aS'0'
aS'0'
aS'0'
asS'Mesorhizobium_loti'
p2093
(lp2094
S'0'
aS'0'
aS'6'
aS'0'
aS'3'
asS'Chromobacterium_violaceum'
p2095
(lp2096
S'1'
aS'0'
aS'4'
aS'1'
aS'2'
asS'Haemophilus_influenzae'
p2097
(lp2098
S'0'
aS'1'
aS'3'
aS'0'
aS'1'
asS'Pasteurella_multocida'
p2099
(lp2100
S'0'
aS'1'
aS'1'
aS'0'
aS'0'
asS'Bordetella_bronchiseptica'
p2101
(lp2102
S'0'
aS'0'
aS'3'
aS'0'
aS'1'
asS'Bordetella_parapertussis'
p2103
(lp2104
S'0'
aS'0'
aS'3'
aS'0'
aS'1'
asS'Xanthomonas_campestris'
p2105
(lp2106
S'0'
aS'0'
aS'2'
aS'0'
aS'1'
asS'Ralstonia_solanacearum'
p2107
(lp2108
S'1'
aS'0'
aS'3'
aS'0'
aS'2'
asS'Vibrio_parahaemolyticus'
p2109
(lp2110
S'0'
aS'1'
aS'0'
aS'0'
aS'0'
asS'Yersinia_pestis'
p2111
(lp2112
S'0'
aS'0'
aS'0'
aS'0'
aS'0'
asS'Candidatus_Blochmannia'
p2113
(lp2114
S'0'
aS'3'
aS'0'
aS'0'
aS'0'
asS'Salmonella_enterica'
p2115
(lp2116
S'0'
aS'0'
aS'0'
aS'0'
aS'0'
asS'Sinorhizobium_meliloti'
p2117
(lp2118
S'0'
aS'0'
aS'6'
aS'0'
aS'2'
asS'Shigella_flexneri'
p2119
(lp2120
S'0'
aS'0'
aS'0'
aS'0'
aS'0'
asS'Nitrosomonas_europaea'
p2121
(lp2122
S'0'
aS'0'
aS'4'
aS'0'
aS'1'
asS'Xylella_fastidiosa'
p2123
(lp2124
S'0'
aS'0'
aS'2'
aS'0'
aS'1'
assS'nsrR-rnr-rlmB-yjfIJ'
p2125
(dp2126
S'Bordetella_pertussis'
p2127
(lp2128
S'0'
aS'2'
aS'1'
aS'0'
aS'1'
asS'Vibrio_cholerae'
p2129
(lp2130
S'0'
aS'2'
aS'1'
aS'0'
aS'1'
asS'Xanthomonas_axonopodis'
p2131
(lp2132
S'0'
aS'1'
aS'2'
aS'0'
aS'1'
asS'Escherichia_coli'
p2133
(lp2134
S'0'
aS'0'
aS'0'
aS'0'
aS'0'
asS'Pseudomonas_syringae'
p2135
(lp2136
S'0'
aS'0'
aS'2'
aS'0'
aS'1'
asS'Bordetella_bronchiseptica'
p2137
(lp2138
S'0'
aS'2'
aS'1'
aS'0'
aS'1'
asS'Pasteurella_multocida'
p2139
(lp2140
S'0'
aS'3'
aS'0'
aS'0'
aS'0'
asS'Salmonella_enterica'
p2141
(lp2142
S'0'
aS'1'
aS'0'
aS'0'
aS'0'
asS'Pseudomonas_putida'
p2143
(lp2144
S'0'
aS'2'
aS'1'
aS'0'
aS'1'
asS'Shigella_flexneri'
p2145
(lp2146
S'0'
aS'2'
aS'0'
aS'0'
aS'0'
asS'Bordetella_parapertussis'
p2147
(lp2148
S'0'
aS'2'
aS'1'
aS'0'
aS'0'
asS'Ralstonia_solanacearum'
p2149
(lp2150
S'0'
aS'2'
aS'1'
aS'0'
aS'1'
asS'Vibrio_parahaemolyticus'
p2151
(lp2152
S'0'
aS'2'
aS'0'
aS'0'
aS'0'
asS'Haemophilus_influenzae'
p2153
(lp2154
S'0'
aS'3'
aS'0'
aS'0'
aS'0'
asS'Yersinia_pestis'
p2155
(lp2156
S'0'
aS'2'
aS'0'
aS'0'
aS'0'
asS'Nitrosomonas_europaea'
p2157
(lp2158
S'0'
aS'2'
aS'1'
aS'0'
aS'0'
asS'Vibrio_vulnificus'
p2159
(lp2160
S'0'
aS'2'
aS'1'
aS'0'
aS'0'
asS'Shewanella_oneidensis'
p2161
(lp2162
S'0'
aS'1'
aS'2'
aS'0'
aS'1'
asS'Caulobacter_crescentus'
p2163
(lp2164
S'0'
aS'0'
aS'3'
aS'0'
aS'2'
asS'Pseudomonas_aeruginosa'
p2165
(lp2166
S'0'
aS'0'
aS'2'
aS'0'
aS'1'
asS'Xanthomonas_campestris'
p2167
(lp2168
S'0'
aS'0'
aS'3'
aS'0'
aS'1'
assS'thrS-infC-rpmI-rplT-pheMST-ihfA'
p2169
(dp2170
S'Campylobacter_jejuni'
p2171
(lp2172
S'0'
aS'1'
aS'3'
aS'0'
aS'2'
asS'Bordetella_pertussis'
p2173
(lp2174
S'0'
aS'0'
aS'1'
aS'0'
aS'1'
asS'Xanthomonas_axonopodis'
p2175
(lp2176
S'0'
aS'0'
aS'0'
aS'0'
aS'0'
asS'Buchnera_aphidicola'
p2177
(lp2178
S'0'
aS'0'
aS'0'
aS'0'
aS'0'
asS'Pseudomonas_syringae'
p2179
(lp2180
S'0'
aS'1'
aS'0'
aS'0'
aS'0'
asS'Brucella_suis'
p2181
(lp2182
S'0'
aS'1'
aS'4'
aS'0'
aS'1'
asS'Vibrio_vulnificus'
p2183
(lp2184
S'0'
aS'0'
aS'2'
aS'0'
aS'0'
asS'Pseudomonas_putida'
p2185
(lp2186
S'0'
aS'1'
aS'0'
aS'0'
aS'0'
asS'Wolinella_succinogenes'
p2187
(lp2188
S'0'
aS'1'
aS'2'
aS'0'
aS'0'
asS'Caulobacter_crescentus'
p2189
(lp2190
S'0'
aS'1'
aS'3'
aS'0'
aS'2'
asS'Candidatus_Blochmannia'
p2191
(lp2192
S'0'
aS'1'
aS'0'
aS'0'
aS'0'
asS'Bradyrhizobium_japonicum'
p2193
(lp2194
S'0'
aS'1'
aS'4'
aS'0'
aS'1'
asS'Brucella_melitensis'
p2195
(lp2196
S'0'
aS'1'
aS'4'
aS'0'
aS'1'
asS'Shewanella_oneidensis'
p2197
(lp2198
S'0'
aS'0'
aS'1'
aS'0'
aS'0'
asS'Pseudomonas_aeruginosa'
p2199
(lp2200
S'0'
aS'1'
aS'0'
aS'0'
aS'0'
asS'Helicobacter_hepaticus'
p2201
(lp2202
S'0'
aS'1'
aS'2'
aS'0'
aS'1'
asS'Agrobacterium_tumefaciens'
p2203
(lp2204
S'0'
aS'1'
aS'3'
aS'0'
aS'1'
asS'Vibrio_cholerae'
p2205
(lp2206
S'0'
aS'3'
aS'1'
aS'0'
aS'1'
asS'Escherichia_coli'
p2207
(lp2208
S'0'
aS'0'
aS'0'
aS'0'
aS'0'
asS'Mesorhizobium_loti'
p2209
(lp2210
S'0'
aS'1'
aS'3'
aS'0'
aS'1'
asS'Chromobacterium_violaceum'
p2211
(lp2212
S'0'
aS'0'
aS'0'
aS'0'
aS'0'
asS'Haemophilus_influenzae'
p2213
(lp2214
S'0'
aS'0'
aS'2'
aS'0'
aS'0'
asS'Pasteurella_multocida'
p2215
(lp2216
S'0'
aS'0'
aS'3'
aS'0'
aS'2'
asS'Bordetella_bronchiseptica'
p2217
(lp2218
S'0'
aS'0'
aS'1'
aS'0'
aS'0'
asS'Bordetella_parapertussis'
p2219
(lp2220
S'0'
aS'0'
aS'1'
aS'0'
aS'0'
asS'Xanthomonas_campestris'
p2221
(lp2222
S'0'
aS'0'
aS'0'
aS'0'
aS'0'
asS'Ralstonia_solanacearum'
p2223
(lp2224
S'0'
aS'0'
aS'0'
aS'0'
aS'0'
asS'Vibrio_parahaemolyticus'
p2225
(lp2226
S'0'
aS'1'
aS'3'
aS'0'
aS'0'
asS'Yersinia_pestis'
p2227
(lp2228
S'0'
aS'0'
aS'0'
aS'0'
aS'0'
asS'Neisseria_meningitidis'
p2229
(lp2230
S'0'
aS'0'
aS'1'
aS'0'
aS'0'
asS'Salmonella_enterica'
p2231
(lp2232
S'0'
aS'0'
aS'0'
aS'0'
aS'0'
asS'Sinorhizobium_meliloti'
p2233
(lp2234
S'0'
aS'1'
aS'2'
aS'0'
aS'0'
asS'Shigella_flexneri'
p2235
(lp2236
S'0'
aS'0'
aS'0'
aS'0'
aS'0'
asS'Nitrosomonas_europaea'
p2237
(lp2238
S'0'
aS'0'
aS'0'
aS'0'
aS'0'
asS'Xylella_fastidiosa'
p2239
(lp2240
S'0'
aS'0'
aS'0'
aS'0'
aS'0'
ass.