(dp1
S'nuoABCEFGHIJKLMN'
p2
(dp3
S'NC_002928'
p4
(lp5
S'1'
aS'1'
aS'1'
aS'2'
aS'0'
asS'NC_011833'
p6
(lp7
S'0'
aS'0'
aS'0'
aS'0'
aS'0'
asS'NC_003198'
p8
(lp9
S'0'
aS'0'
aS'0'
aS'0'
aS'0'
asS'NC_005090'
p10
(lp11
S'2'
aS'2'
aS'2'
aS'2'
aS'0'
asS'NC_002696'
p12
(lp13
S'1'
aS'1'
aS'1'
aS'0'
aS'0'
asS'NC_003197'
p14
(lp15
S'0'
aS'0'
aS'0'
aS'0'
aS'0'
asS'NC_002516'
p16
(lp17
S'0'
aS'0'
aS'0'
aS'0'
aS'0'
asS'NC_000913'
p18
(lp19
S'0'
aS'0'
aS'0'
aS'0'
aS'0'
asS'NC_004917'
p20
(lp21
S'1'
aS'3'
aS'1'
aS'1'
aS'0'
asS'NC_012441'
p22
(lp23
S'1'
aS'1'
aS'1'
aS'2'
aS'0'
asS'NC_002163'
p24
(lp25
S'1'
aS'3'
aS'1'
aS'1'
aS'0'
asS'NC_003295'
p26
(lp27
S'1'
aS'0'
aS'0'
aS'2'
aS'0'
asS'NC_002929'
p28
(lp29
S'1'
aS'0'
aS'0'
aS'2'
aS'0'
asS'NC_004741'
p30
(lp31
S'0'
aS'0'
aS'0'
aS'0'
aS'0'
asS'NC_003112'
p32
(lp33
S'1'
aS'1'
aS'3'
aS'2'
aS'0'
asS'NC_004757'
p34
(lp35
S'1'
aS'0'
aS'0'
aS'2'
aS'0'
asS'NC_005085'
p36
(lp37
S'1'
aS'0'
aS'0'
aS'2'
aS'0'
asS'NC_002678'
p38
(lp39
S'1'
aS'1'
aS'1'
aS'2'
aS'0'
asS'NC_002947'
p40
(lp41
S'0'
aS'0'
aS'0'
aS'0'
aS'0'
asS'NC_003143'
p42
(lp43
S'0'
aS'0'
aS'0'
aS'0'
aS'0'
asS'NC_003047'
p44
(lp45
S'1'
aS'2'
aS'2'
aS'1'
aS'0'
asS'NC_003062'
p46
(lp47
S'1'
aS'1'
aS'0'
aS'0'
aS'0'
asS'NC_005061'
p48
(lp49
S'0'
aS'0'
aS'0'
aS'0'
aS'0'
asS'NC_007086'
p50
(lp51
S'1'
aS'1'
aS'0'
aS'2'
aS'0'
asS'NC_002927'
p52
(lp53
S'1'
aS'1'
aS'1'
aS'2'
aS'0'
asS'NC_004347'
p54
(lp55
S'2'
aS'0'
aS'2'
aS'0'
aS'1'
asS'NC_002488'
p56
(lp57
S'1'
aS'2'
aS'1'
aS'2'
aS'0'
asS'NC_004578'
p58
(lp59
S'0'
aS'0'
aS'0'
aS'0'
aS'0'
asS'NC_003919'
p60
(lp61
S'1'
aS'2'
aS'1'
aS'2'
aS'0'
asS'NC_004310'
p62
(lp63
S'1'
aS'1'
aS'1'
aS'2'
aS'0'
asS'NC_004463'
p64
(lp65
S'1'
aS'1'
aS'1'
aS'1'
aS'0'
assS'ydgK-rsxABCDGE-nth'
p66
(dp67
S'NC_002928'
p68
(lp69
S'0'
aS'5'
aS'1'
aS'0'
aS'1'
asS'NC_011833'
p70
(lp71
S'0'
aS'1'
aS'0'
aS'0'
aS'0'
asS'NC_003198'
p72
(lp73
S'0'
aS'0'
aS'0'
aS'0'
aS'0'
asS'NC_003197'
p74
(lp75
S'0'
aS'0'
aS'0'
aS'0'
aS'0'
asS'NC_002516'
p76
(lp77
S'0'
aS'1'
aS'0'
aS'0'
aS'0'
asS'NC_012668'
p78
(lp79
S'3'
aS'1'
aS'1'
aS'3'
aS'0'
asS'NC_000913'
p80
(lp81
S'0'
aS'0'
aS'0'
aS'0'
aS'0'
asS'NC_004603'
p82
(lp83
S'0'
aS'1'
aS'0'
aS'0'
aS'0'
asS'NC_000907'
p84
(lp85
S'0'
aS'1'
aS'0'
aS'0'
aS'0'
asS'NC_003295'
p86
(lp87
S'0'
aS'6'
aS'0'
aS'0'
aS'0'
asS'NC_002929'
p88
(lp89
S'0'
aS'5'
aS'1'
aS'0'
aS'1'
asS'NC_004741'
p90
(lp91
S'0'
aS'0'
aS'0'
aS'0'
aS'0'
asS'NC_003112'
p92
(lp93
S'0'
aS'2'
aS'4'
aS'0'
aS'1'
asS'NC_004757'
p94
(lp95
S'0'
aS'2'
aS'3'
aS'0'
aS'1'
asS'NC_005085'
p96
(lp97
S'0'
aS'5'
aS'1'
aS'0'
aS'0'
asS'NC_002947'
p98
(lp99
S'0'
aS'2'
aS'3'
aS'0'
aS'2'
asS'NC_003143'
p100
(lp101
S'0'
aS'0'
aS'1'
aS'0'
aS'0'
asS'NC_002663'
p102
(lp103
S'0'
aS'1'
aS'0'
aS'0'
aS'0'
asS'NC_002927'
p104
(lp105
S'0'
aS'5'
aS'1'
aS'0'
aS'1'
asS'NC_004347'
p106
(lp107
S'0'
aS'1'
aS'0'
aS'0'
aS'0'
asS'NC_004459'
p108
(lp109
S'0'
aS'1'
aS'0'
aS'0'
aS'0'
asS'NC_004578'
p110
(lp111
S'0'
aS'5'
aS'1'
aS'0'
aS'0'
assS'yceD-rpmF-plsX-fabHDG-acpP-fabF'
p112
(dp113
S'NC_002928'
p114
(lp115
S'0'
aS'0'
aS'0'
aS'0'
aS'0'
asS'NC_011833'
p116
(lp117
S'0'
aS'4'
aS'2'
aS'0'
aS'0'
asS'NC_003198'
p118
(lp119
S'0'
aS'0'
aS'0'
aS'0'
aS'0'
asS'NC_005090'
p120
(lp121
S'0'
aS'2'
aS'2'
aS'0'
aS'1'
asS'NC_002696'
p122
(lp123
S'0'
aS'1'
aS'3'
aS'0'
aS'0'
asS'NC_003197'
p124
(lp125
S'0'
aS'0'
aS'0'
aS'0'
aS'0'
asS'NC_002516'
p126
(lp127
S'1'
aS'0'
aS'1'
aS'1'
aS'1'
asS'NC_012668'
p128
(lp129
S'0'
aS'0'
aS'0'
aS'0'
aS'0'
asS'NC_000913'
p130
(lp131
S'0'
aS'0'
aS'0'
aS'0'
aS'0'
asS'NC_012441'
p132
(lp133
S'1'
aS'1'
aS'2'
aS'0'
aS'1'
asS'NC_007086'
p134
(lp135
S'0'
aS'1'
aS'1'
aS'0'
aS'0'
asS'NC_004917'
p136
(lp137
S'0'
aS'2'
aS'3'
aS'0'
aS'2'
asS'NC_004603'
p138
(lp139
S'0'
aS'0'
aS'0'
aS'0'
aS'0'
asS'NC_000907'
p140
(lp141
S'0'
aS'1'
aS'2'
aS'0'
aS'0'
asS'NC_002163'
p142
(lp143
S'0'
aS'2'
aS'3'
aS'0'
aS'1'
asS'NC_003295'
p144
(lp145
S'0'
aS'0'
aS'0'
aS'0'
aS'0'
asS'NC_002929'
p146
(lp147
S'0'
aS'0'
aS'0'
aS'0'
aS'0'
asS'NC_004741'
p148
(lp149
S'0'
aS'0'
aS'0'
aS'0'
aS'0'
asS'NC_003112'
p150
(lp151
S'1'
aS'0'
aS'5'
aS'0'
aS'1'
asS'NC_004757'
p152
(lp153
S'0'
aS'0'
aS'0'
aS'0'
aS'0'
asS'NC_003919'
p154
(lp155
S'0'
aS'2'
aS'1'
aS'0'
aS'0'
asS'NC_002678'
p156
(lp157
S'0'
aS'1'
aS'2'
aS'0'
aS'1'
asS'NC_002947'
p158
(lp159
S'0'
aS'0'
aS'1'
aS'0'
aS'1'
asS'NC_003143'
p160
(lp161
S'0'
aS'0'
aS'0'
aS'0'
aS'0'
asS'NC_005085'
p162
(lp163
S'0'
aS'0'
aS'0'
aS'0'
aS'0'
asS'NC_002663'
p164
(lp165
S'0'
aS'0'
aS'1'
aS'0'
aS'0'
asS'NC_005061'
p166
(lp167
S'0'
aS'1'
aS'1'
aS'0'
aS'0'
asS'NC_003047'
p168
(lp169
S'0'
aS'1'
aS'2'
aS'0'
aS'1'
asS'NC_002927'
p170
(lp171
S'0'
aS'0'
aS'0'
aS'0'
aS'0'
asS'NC_002488'
p172
(lp173
S'0'
aS'1'
aS'1'
aS'0'
aS'0'
asS'NC_004347'
p174
(lp175
S'0'
aS'0'
aS'0'
aS'0'
aS'0'
asS'NC_004459'
p176
(lp177
S'2'
aS'0'
aS'1'
aS'0'
aS'1'
asS'NC_004578'
p178
(lp179
S'0'
aS'0'
aS'1'
aS'0'
aS'1'
asS'NC_004310'
p180
(lp181
S'0'
aS'1'
aS'2'
aS'0'
aS'1'
asS'NC_004463'
p182
(lp183
S'0'
aS'1'
aS'2'
aS'0'
aS'1'
asS'NC_003062'
p184
(lp185
S'0'
aS'1'
aS'2'
aS'0'
aS'0'
assS'lsrACDBFG-tam'
p186
(dp187
S'NC_002928'
p188
(lp189
S'0'
aS'3'
aS'2'
aS'1'
aS'0'
asS'NC_011833'
p190
(lp191
S'1'
aS'6'
aS'0'
aS'1'
aS'0'
asS'NC_003198'
p192
(lp193
S'0'
aS'0'
aS'1'
aS'0'
aS'0'
asS'NC_005090'
p194
(lp195
S'1'
aS'6'
aS'0'
aS'1'
aS'0'
asS'NC_002696'
p196
(lp197
S'0'
aS'3'
aS'2'
aS'0'
aS'1'
asS'NC_003197'
p198
(lp199
S'0'
aS'0'
aS'1'
aS'0'
aS'1'
asS'NC_002516'
p200
(lp201
S'0'
aS'3'
aS'2'
aS'0'
aS'1'
asS'NC_012668'
p202
(lp203
S'0'
aS'3'
aS'2'
aS'0'
aS'1'
asS'NC_000913'
p204
(lp205
S'0'
aS'0'
aS'0'
aS'0'
aS'0'
asS'NC_012441'
p206
(lp207
S'1'
aS'2'
aS'3'
aS'1'
aS'0'
asS'NC_004917'
p208
(lp209
S'1'
aS'6'
aS'0'
aS'1'
aS'0'
asS'NC_000907'
p210
(lp211
S'1'
aS'3'
aS'2'
aS'0'
aS'1'
asS'NC_002163'
p212
(lp213
S'1'
aS'5'
aS'1'
aS'1'
aS'1'
asS'NC_003295'
p214
(lp215
S'0'
aS'3'
aS'2'
aS'0'
aS'0'
asS'NC_002929'
p216
(lp217
S'1'
aS'5'
aS'1'
aS'1'
aS'1'
asS'NC_004741'
p218
(lp219
S'0'
aS'1'
aS'1'
aS'0'
aS'1'
asS'NC_004603'
p220
(lp221
S'1'
aS'4'
aS'2'
aS'1'
aS'0'
asS'NC_003919'
p222
(lp223
S'1'
aS'5'
aS'1'
aS'1'
aS'0'
asS'NC_002678'
p224
(lp225
S'1'
aS'1'
aS'2'
aS'2'
aS'1'
asS'NC_002947'
p226
(lp227
S'0'
aS'2'
aS'3'
aS'0'
aS'0'
asS'NC_003143'
p228
(lp229
S'0'
aS'0'
aS'1'
aS'0'
aS'1'
asS'NC_005085'
p230
(lp231
S'0'
aS'3'
aS'2'
aS'1'
aS'0'
asS'NC_002663'
p232
(lp233
S'0'
aS'1'
aS'0'
aS'0'
aS'0'
asS'NC_003047'
p234
(lp235
S'1'
aS'2'
aS'1'
aS'2'
aS'1'
asS'NC_002927'
p236
(lp237
S'2'
aS'3'
aS'2'
aS'2'
aS'1'
asS'NC_004347'
p238
(lp239
S'1'
aS'5'
aS'1'
aS'1'
aS'0'
asS'NC_004459'
p240
(lp241
S'1'
aS'6'
aS'0'
aS'1'
aS'0'
asS'NC_004578'
p242
(lp243
S'0'
aS'2'
aS'3'
aS'0'
aS'2'
asS'NC_004310'
p244
(lp245
S'2'
aS'2'
aS'3'
aS'0'
aS'1'
asS'NC_004463'
p246
(lp247
S'1'
aS'2'
aS'2'
aS'0'
aS'0'
asS'NC_003062'
p248
(lp249
S'1'
aS'2'
aS'2'
aS'0'
aS'1'
assS'lptAB-rpoN-hpf-ptsN-yhbJ-npr'
p250
(dp251
S'NC_002928'
p252
(lp253
S'0'
aS'0'
aS'3'
aS'0'
aS'1'
asS'NC_011833'
p254
(lp255
S'1'
aS'4'
aS'2'
aS'1'
aS'1'
asS'NC_003198'
p256
(lp257
S'0'
aS'0'
aS'0'
aS'0'
aS'0'
asS'NC_005090'
p258
(lp259
S'0'
aS'5'
aS'0'
aS'0'
aS'0'
asS'NC_002696'
p260
(lp261
S'0'
aS'3'
aS'2'
aS'0'
aS'1'
asS'NC_003197'
p262
(lp263
S'0'
aS'0'
aS'0'
aS'0'
aS'0'
asS'NC_002516'
p264
(lp265
S'0'
aS'0'
aS'0'
aS'0'
aS'0'
asS'NC_012668'
p266
(lp267
S'0'
aS'0'
aS'0'
aS'0'
aS'0'
asS'NC_000913'
p268
(lp269
S'0'
aS'0'
aS'0'
aS'0'
aS'0'
asS'NC_012441'
p270
(lp271
S'0'
aS'4'
aS'1'
aS'0'
aS'0'
asS'NC_007086'
p272
(lp273
S'0'
aS'0'
aS'2'
aS'0'
aS'0'
asS'NC_004917'
p274
(lp275
S'0'
aS'5'
aS'0'
aS'0'
aS'0'
asS'NC_004603'
p276
(lp277
S'0'
aS'0'
aS'0'
aS'0'
aS'0'
asS'NC_000907'
p278
(lp279
S'0'
aS'1'
aS'2'
aS'0'
aS'1'
asS'NC_002163'
p280
(lp281
S'0'
aS'5'
aS'0'
aS'0'
aS'0'
asS'NC_003295'
p282
(lp283
S'0'
aS'0'
aS'2'
aS'0'
aS'1'
asS'NC_002929'
p284
(lp285
S'0'
aS'1'
aS'4'
aS'0'
aS'2'
asS'NC_004741'
p286
(lp287
S'0'
aS'0'
aS'0'
aS'0'
aS'0'
asS'NC_003112'
p288
(lp289
S'0'
aS'1'
aS'4'
aS'0'
aS'1'
asS'NC_004757'
p290
(lp291
S'0'
aS'0'
aS'2'
aS'0'
aS'1'
asS'NC_003919'
p292
(lp293
S'0'
aS'0'
aS'2'
aS'0'
aS'0'
asS'NC_002678'
p294
(lp295
S'0'
aS'2'
aS'2'
aS'0'
aS'0'
asS'NC_002947'
p296
(lp297
S'0'
aS'0'
aS'0'
aS'0'
aS'0'
asS'NC_003143'
p298
(lp299
S'0'
aS'0'
aS'1'
aS'0'
aS'0'
asS'NC_005085'
p300
(lp301
S'0'
aS'0'
aS'2'
aS'0'
aS'0'
asS'NC_002663'
p302
(lp303
S'0'
aS'1'
aS'2'
aS'0'
aS'1'
asS'NC_005061'
p304
(lp305
S'0'
aS'4'
aS'1'
aS'0'
aS'1'
asS'NC_003047'
p306
(lp307
S'0'
aS'3'
aS'2'
aS'0'
aS'0'
asS'NC_002927'
p308
(lp309
S'0'
aS'0'
aS'3'
aS'0'
aS'1'
asS'NC_002488'
p310
(lp311
S'0'
aS'1'
aS'2'
aS'0'
aS'0'
asS'NC_004347'
p312
(lp313
S'0'
aS'0'
aS'0'
aS'0'
aS'0'
asS'NC_004459'
p314
(lp315
S'0'
aS'0'
aS'0'
aS'0'
aS'0'
asS'NC_004578'
p316
(lp317
S'0'
aS'0'
aS'0'
aS'0'
aS'0'
asS'NC_004310'
p318
(lp319
S'0'
aS'4'
aS'1'
aS'0'
aS'0'
asS'NC_004463'
p320
(lp321
S'0'
aS'2'
aS'1'
aS'0'
aS'0'
asS'NC_003062'
p322
(lp323
S'0'
aS'1'
aS'1'
aS'0'
aS'0'
assS'pspABCDE'
p324
(dp325
S'NC_004347'
p326
(lp327
S'0'
aS'1'
aS'1'
aS'0'
aS'0'
asS'NC_004459'
p328
(lp329
S'0'
aS'2'
aS'0'
aS'0'
aS'0'
asS'NC_004603'
p330
(lp331
S'0'
aS'2'
aS'0'
aS'0'
aS'0'
asS'NC_003198'
p332
(lp333
S'0'
aS'0'
aS'0'
aS'0'
aS'0'
asS'NC_000913'
p334
(lp335
S'0'
aS'0'
aS'0'
aS'0'
aS'0'
asS'NC_003197'
p336
(lp337
S'0'
aS'0'
aS'0'
aS'0'
aS'0'
asS'NC_003143'
p338
(lp339
S'0'
aS'1'
aS'1'
aS'0'
aS'0'
asS'NC_012668'
p340
(lp341
S'0'
aS'2'
aS'0'
aS'0'
aS'0'
asS'NC_004741'
p342
(lp343
S'0'
aS'0'
aS'0'
aS'0'
aS'0'
assS'metY-rimP-nusA-infB-rbfA-truB-rpsO-pnp'
p344
(dp345
S'NC_002928'
p346
(lp347
S'1'
aS'1'
aS'1'
aS'1'
aS'1'
asS'NC_011833'
p348
(lp349
S'0'
aS'2'
aS'0'
aS'0'
aS'0'
asS'NC_003198'
p350
(lp351
S'0'
aS'1'
aS'0'
aS'0'
aS'0'
asS'NC_005090'
p352
(lp353
S'0'
aS'2'
aS'4'
aS'0'
aS'0'
asS'NC_002696'
p354
(lp355
S'1'
aS'1'
aS'2'
aS'1'
aS'0'
asS'NC_003197'
p356
(lp357
S'0'
aS'1'
aS'0'
aS'0'
aS'0'
asS'NC_002516'
p358
(lp359
S'0'
aS'1'
aS'0'
aS'0'
aS'0'
asS'NC_012668'
p360
(lp361
S'0'
aS'1'
aS'0'
aS'0'
aS'0'
asS'NC_004741'
p362
(lp363
S'0'
aS'1'
aS'0'
aS'0'
aS'0'
asS'NC_007086'
p364
(lp365
S'0'
aS'1'
aS'0'
aS'0'
aS'0'
asS'NC_000913'
p366
(lp367
S'0'
aS'1'
aS'0'
aS'0'
aS'0'
asS'NC_004603'
p368
(lp369
S'0'
aS'1'
aS'0'
aS'0'
aS'0'
asS'NC_012441'
p370
(lp371
S'0'
aS'2'
aS'2'
aS'0'
aS'0'
asS'NC_002163'
p372
(lp373
S'0'
aS'2'
aS'4'
aS'0'
aS'0'
asS'NC_003295'
p374
(lp375
S'0'
aS'1'
aS'1'
aS'0'
aS'1'
asS'NC_002929'
p376
(lp377
S'1'
aS'1'
aS'1'
aS'1'
aS'0'
asS'NC_000907'
p378
(lp379
S'0'
aS'1'
aS'3'
aS'0'
aS'1'
asS'NC_003112'
p380
(lp381
S'0'
aS'1'
aS'3'
aS'0'
aS'0'
asS'NC_004757'
p382
(lp383
S'0'
aS'1'
aS'1'
aS'0'
aS'1'
asS'NC_005085'
p384
(lp385
S'0'
aS'1'
aS'0'
aS'0'
aS'0'
asS'NC_002678'
p386
(lp387
S'0'
aS'2'
aS'3'
aS'0'
aS'0'
asS'NC_002947'
p388
(lp389
S'0'
aS'2'
aS'1'
aS'0'
aS'0'
asS'NC_003143'
p390
(lp391
S'0'
aS'1'
aS'1'
aS'0'
aS'0'
asS'NC_002488'
p392
(lp393
S'0'
aS'1'
aS'0'
aS'0'
aS'0'
asS'NC_002663'
p394
(lp395
S'0'
aS'1'
aS'3'
aS'0'
aS'1'
asS'NC_005061'
p396
(lp397
S'0'
aS'2'
aS'0'
aS'0'
aS'0'
asS'NC_003047'
p398
(lp399
S'1'
aS'2'
aS'3'
aS'1'
aS'0'
asS'NC_002927'
p400
(lp401
S'1'
aS'1'
aS'1'
aS'1'
aS'0'
asS'NC_004347'
p402
(lp403
S'0'
aS'2'
aS'2'
aS'0'
aS'0'
asS'NC_004459'
p404
(lp405
S'0'
aS'1'
aS'2'
aS'0'
aS'0'
asS'NC_004578'
p406
(lp407
S'0'
aS'1'
aS'0'
aS'0'
aS'0'
asS'NC_003919'
p408
(lp409
S'0'
aS'1'
aS'0'
aS'0'
aS'0'
asS'NC_004310'
p410
(lp411
S'0'
aS'2'
aS'2'
aS'0'
aS'0'
asS'NC_004463'
p412
(lp413
S'1'
aS'2'
aS'2'
aS'1'
aS'0'
asS'NC_003062'
p414
(lp415
S'0'
aS'2'
aS'1'
aS'0'
aS'0'
assS'tdcABCDEFG'
p416
(dp417
S'NC_003295'
p418
(lp419
S'1'
aS'4'
aS'2'
aS'1'
aS'1'
asS'NC_004741'
p420
(lp421
S'1'
aS'0'
aS'0'
aS'0'
aS'0'
asS'NC_004603'
p422
(lp423
S'1'
aS'0'
aS'5'
aS'0'
aS'2'
asS'NC_003198'
p424
(lp425
S'1'
aS'0'
aS'3'
aS'0'
aS'1'
asS'NC_005085'
p426
(lp427
S'0'
aS'0'
aS'5'
aS'0'
aS'3'
asS'NC_002678'
p428
(lp429
S'1'
aS'2'
aS'4'
aS'1'
aS'1'
asS'NC_003197'
p430
(lp431
S'1'
aS'0'
aS'1'
aS'0'
aS'0'
asS'NC_002516'
p432
(lp433
S'1'
aS'2'
aS'3'
aS'1'
aS'2'
asS'NC_002663'
p434
(lp435
S'0'
aS'0'
aS'5'
aS'0'
aS'2'
asS'NC_012668'
p436
(lp437
S'0'
aS'0'
aS'5'
aS'0'
aS'2'
asS'NC_004578'
p438
(lp439
S'1'
aS'1'
aS'5'
aS'1'
aS'2'
asS'NC_004459'
p440
(lp441
S'0'
aS'0'
aS'5'
aS'0'
aS'1'
asS'NC_002947'
p442
(lp443
S'1'
aS'2'
aS'4'
aS'1'
aS'2'
asS'NC_000913'
p444
(lp445
S'1'
aS'0'
aS'0'
aS'0'
aS'0'
asS'NC_000907'
p446
(lp447
S'0'
aS'0'
aS'5'
aS'0'
aS'2'
asS'NC_002163'
p448
(lp449
S'0'
aS'2'
aS'3'
aS'0'
aS'2'
assS'ssuEADCB'
p450
(dp451
S'NC_002928'
p452
(lp453
S'2'
aS'1'
aS'1'
aS'0'
aS'1'
asS'NC_011833'
p454
(lp455
S'1'
aS'4'
aS'0'
aS'1'
aS'0'
asS'NC_003198'
p456
(lp457
S'1'
aS'3'
aS'1'
aS'1'
aS'0'
asS'NC_005090'
p458
(lp459
S'0'
aS'3'
aS'0'
aS'0'
aS'0'
asS'NC_002696'
p460
(lp461
S'0'
aS'1'
aS'1'
aS'0'
aS'1'
asS'NC_003197'
p462
(lp463
S'0'
aS'3'
aS'0'
aS'0'
aS'0'
asS'NC_002516'
p464
(lp465
S'3'
aS'0'
aS'0'
aS'6'
aS'0'
asS'NC_012668'
p466
(lp467
S'1'
aS'4'
aS'0'
aS'1'
aS'0'
asS'NC_000913'
p468
(lp469
S'0'
aS'0'
aS'0'
aS'0'
aS'0'
asS'NC_012441'
p470
(lp471
S'0'
aS'2'
aS'1'
aS'0'
aS'0'
asS'NC_007086'
p472
(lp473
S'0'
aS'2'
aS'1'
aS'0'
aS'0'
asS'NC_004917'
p474
(lp475
S'1'
aS'3'
aS'1'
aS'1'
aS'0'
asS'NC_000907'
p476
(lp477
S'0'
aS'3'
aS'0'
aS'0'
aS'0'
asS'NC_002163'
p478
(lp479
S'0'
aS'3'
aS'0'
aS'0'
aS'0'
asS'NC_003295'
p480
(lp481
S'0'
aS'0'
aS'0'
aS'0'
aS'0'
asS'NC_002929'
p482
(lp483
S'0'
aS'2'
aS'0'
aS'0'
aS'0'
asS'NC_004741'
p484
(lp485
S'0'
aS'0'
aS'1'
aS'0'
aS'0'
asS'NC_004603'
p486
(lp487
S'0'
aS'3'
aS'0'
aS'0'
aS'0'
asS'NC_004757'
p488
(lp489
S'0'
aS'3'
aS'0'
aS'0'
aS'0'
asS'NC_003919'
p490
(lp491
S'0'
aS'0'
aS'0'
aS'1'
aS'0'
asS'NC_002678'
p492
(lp493
S'0'
aS'0'
aS'1'
aS'0'
aS'1'
asS'NC_002947'
p494
(lp495
S'0'
aS'0'
aS'0'
aS'0'
aS'0'
asS'NC_003143'
p496
(lp497
S'0'
aS'0'
aS'0'
aS'0'
aS'0'
asS'NC_005085'
p498
(lp499
S'0'
aS'2'
aS'0'
aS'1'
aS'0'
asS'NC_002663'
p500
(lp501
S'0'
aS'2'
aS'1'
aS'0'
aS'1'
asS'NC_003047'
p502
(lp503
S'0'
aS'2'
aS'0'
aS'0'
aS'0'
asS'NC_002927'
p504
(lp505
S'2'
aS'1'
aS'1'
aS'0'
aS'1'
asS'NC_004347'
p506
(lp507
S'1'
aS'4'
aS'0'
aS'1'
aS'0'
asS'NC_004459'
p508
(lp509
S'1'
aS'3'
aS'1'
aS'1'
aS'1'
asS'NC_004578'
p510
(lp511
S'0'
aS'0'
aS'2'
aS'0'
aS'1'
asS'NC_004310'
p512
(lp513
S'0'
aS'2'
aS'1'
aS'0'
aS'0'
asS'NC_004463'
p514
(lp515
S'0'
aS'1'
aS'0'
aS'0'
aS'0'
asS'NC_003062'
p516
(lp517
S'0'
aS'1'
aS'1'
aS'0'
aS'1'
assS'hyfABCDEFGHIJR-focB'
p518
(dp519
S'NC_002928'
p520
(lp521
S'3'
aS'3'
aS'5'
aS'2'
aS'1'
asS'NC_011833'
p522
(lp523
S'1'
aS'5'
aS'3'
aS'2'
aS'0'
asS'NC_003198'
p524
(lp525
S'1'
aS'1'
aS'3'
aS'0'
aS'0'
asS'NC_005090'
p526
(lp527
S'2'
aS'2'
aS'2'
aS'1'
aS'1'
asS'NC_002696'
p528
(lp529
S'2'
aS'4'
aS'4'
aS'1'
aS'1'
asS'NC_003197'
p530
(lp531
S'1'
aS'1'
aS'3'
aS'0'
aS'0'
asS'NC_002516'
p532
(lp533
S'1'
aS'3'
aS'5'
aS'1'
aS'0'
asS'NC_000913'
p534
(lp535
S'0'
aS'0'
aS'0'
aS'0'
aS'0'
asS'NC_007086'
p536
(lp537
S'0'
aS'4'
aS'6'
aS'0'
aS'2'
asS'NC_004917'
p538
(lp539
S'1'
aS'3'
aS'4'
aS'2'
aS'1'
asS'NC_012441'
p540
(lp541
S'3'
aS'3'
aS'6'
aS'3'
aS'2'
asS'NC_002163'
p542
(lp543
S'1'
aS'3'
aS'4'
aS'2'
aS'0'
asS'NC_003295'
p544
(lp545
S'1'
aS'3'
aS'6'
aS'1'
aS'1'
asS'NC_002929'
p546
(lp547
S'3'
aS'3'
aS'5'
aS'2'
aS'0'
asS'NC_004741'
p548
(lp549
S'2'
aS'0'
aS'5'
aS'2'
aS'3'
asS'NC_003112'
p550
(lp551
S'0'
aS'5'
aS'4'
aS'0'
aS'0'
asS'NC_004757'
p552
(lp553
S'2'
aS'3'
aS'7'
aS'1'
aS'4'
asS'NC_003919'
p554
(lp555
S'0'
aS'4'
aS'5'
aS'0'
aS'0'
asS'NC_002678'
p556
(lp557
S'1'
aS'4'
aS'4'
aS'2'
aS'0'
asS'NC_002947'
p558
(lp559
S'1'
aS'3'
aS'5'
aS'1'
aS'2'
asS'NC_003143'
p560
(lp561
S'2'
aS'2'
aS'6'
aS'2'
aS'1'
asS'NC_005085'
p562
(lp563
S'2'
aS'3'
aS'6'
aS'2'
aS'0'
asS'NC_003062'
p564
(lp565
S'1'
aS'5'
aS'3'
aS'1'
aS'0'
asS'NC_005061'
p566
(lp567
S'1'
aS'5'
aS'3'
aS'1'
aS'0'
asS'NC_003047'
p568
(lp569
S'1'
aS'4'
aS'5'
aS'1'
aS'2'
asS'NC_002927'
p570
(lp571
S'3'
aS'3'
aS'6'
aS'1'
aS'1'
asS'NC_004347'
p572
(lp573
S'1'
aS'2'
aS'6'
aS'1'
aS'1'
asS'NC_002488'
p574
(lp575
S'0'
aS'4'
aS'5'
aS'0'
aS'1'
asS'NC_004578'
p576
(lp577
S'1'
aS'4'
aS'3'
aS'2'
aS'0'
asS'NC_004310'
p578
(lp579
S'2'
aS'3'
aS'5'
aS'2'
aS'2'
asS'NC_004463'
p580
(lp581
S'2'
aS'2'
aS'6'
aS'2'
aS'3'
assS'lptD-surA-pdxA-rsmA-apaGH'
p582
(dp583
S'NC_002928'
p584
(lp585
S'0'
aS'0'
aS'3'
aS'0'
aS'2'
asS'NC_011833'
p586
(lp587
S'0'
aS'3'
aS'0'
aS'0'
aS'0'
asS'NC_003198'
p588
(lp589
S'0'
aS'0'
aS'0'
aS'0'
aS'0'
asS'NC_002696'
p590
(lp591
S'0'
aS'1'
aS'1'
aS'0'
aS'1'
asS'NC_003197'
p592
(lp593
S'0'
aS'0'
aS'0'
aS'0'
aS'0'
asS'NC_002516'
p594
(lp595
S'0'
aS'0'
aS'0'
aS'0'
aS'0'
asS'NC_012668'
p596
(lp597
S'0'
aS'0'
aS'0'
aS'0'
aS'0'
asS'NC_007086'
p598
(lp599
S'0'
aS'0'
aS'1'
aS'0'
aS'0'
asS'NC_000913'
p600
(lp601
S'0'
aS'0'
aS'0'
aS'0'
aS'0'
asS'NC_004603'
p602
(lp603
S'0'
aS'0'
aS'0'
aS'0'
aS'0'
asS'NC_012441'
p604
(lp605
S'0'
aS'1'
aS'1'
aS'0'
aS'0'
asS'NC_003295'
p606
(lp607
S'0'
aS'0'
aS'2'
aS'0'
aS'1'
asS'NC_002929'
p608
(lp609
S'0'
aS'0'
aS'3'
aS'0'
aS'1'
asS'NC_004741'
p610
(lp611
S'0'
aS'0'
aS'0'
aS'0'
aS'0'
asS'NC_003112'
p612
(lp613
S'0'
aS'1'
aS'3'
aS'0'
aS'2'
asS'NC_004757'
p614
(lp615
S'0'
aS'0'
aS'2'
aS'0'
aS'1'
asS'NC_005085'
p616
(lp617
S'0'
aS'0'
aS'3'
aS'0'
aS'2'
asS'NC_002678'
p618
(lp619
S'0'
aS'0'
aS'4'
aS'0'
aS'1'
asS'NC_002947'
p620
(lp621
S'0'
aS'1'
aS'0'
aS'0'
aS'0'
asS'NC_003143'
p622
(lp623
S'0'
aS'0'
aS'0'
aS'0'
aS'0'
asS'NC_002488'
p624
(lp625
S'0'
aS'0'
aS'1'
aS'0'
aS'0'
asS'NC_002663'
p626
(lp627
S'0'
aS'1'
aS'2'
aS'0'
aS'1'
asS'NC_005061'
p628
(lp629
S'0'
aS'1'
aS'0'
aS'0'
aS'0'
asS'NC_003047'
p630
(lp631
S'0'
aS'1'
aS'3'
aS'0'
aS'0'
asS'NC_002927'
p632
(lp633
S'0'
aS'0'
aS'3'
aS'0'
aS'1'
asS'NC_004347'
p634
(lp635
S'0'
aS'0'
aS'0'
aS'0'
aS'0'
asS'NC_004459'
p636
(lp637
S'0'
aS'0'
aS'0'
aS'0'
aS'0'
asS'NC_004578'
p638
(lp639
S'0'
aS'0'
aS'0'
aS'0'
aS'0'
asS'NC_003919'
p640
(lp641
S'0'
aS'0'
aS'0'
aS'0'
aS'0'
asS'NC_004310'
p642
(lp643
S'0'
aS'1'
aS'1'
aS'0'
aS'0'
asS'NC_004463'
p644
(lp645
S'0'
aS'1'
aS'1'
aS'0'
aS'0'
asS'NC_003062'
p646
(lp647
S'0'
aS'2'
aS'2'
aS'0'
aS'0'
assS'ulaABCDEF'
p648
(dp649
S'NC_004741'
p650
(lp651
S'0'
aS'0'
aS'0'
aS'0'
aS'0'
asS'NC_003198'
p652
(lp653
S'0'
aS'0'
aS'0'
aS'0'
aS'0'
asS'NC_000913'
p654
(lp655
S'0'
aS'0'
aS'0'
aS'0'
aS'0'
asS'NC_003197'
p656
(lp657
S'0'
aS'0'
aS'0'
aS'0'
aS'0'
asS'NC_000907'
p658
(lp659
S'0'
aS'3'
aS'0'
aS'2'
aS'0'
asS'NC_002663'
p660
(lp661
S'1'
aS'0'
aS'2'
aS'0'
aS'1'
assS'hcaEFCBD'
p662
(dp663
S'NC_003295'
p664
(lp665
S'0'
aS'2'
aS'1'
aS'0'
aS'0'
asS'NC_002929'
p666
(lp667
S'2'
aS'0'
aS'2'
aS'2'
aS'1'
asS'NC_002516'
p668
(lp669
S'0'
aS'1'
aS'2'
aS'0'
aS'1'
asS'NC_003919'
p670
(lp671
S'1'
aS'1'
aS'3'
aS'1'
aS'1'
asS'NC_002678'
p672
(lp673
S'1'
aS'1'
aS'2'
aS'1'
aS'1'
asS'NC_002947'
p674
(lp675
S'1'
aS'1'
aS'2'
aS'1'
aS'1'
asS'NC_002696'
p676
(lp677
S'0'
aS'1'
aS'2'
aS'0'
aS'0'
asS'NC_003047'
p678
(lp679
S'1'
aS'1'
aS'2'
aS'0'
aS'1'
asS'NC_007086'
p680
(lp681
S'0'
aS'2'
aS'1'
aS'0'
aS'1'
asS'NC_002927'
p682
(lp683
S'1'
aS'0'
aS'1'
aS'2'
aS'1'
asS'NC_004578'
p684
(lp685
S'1'
aS'2'
aS'2'
aS'1'
aS'1'
asS'NC_004741'
p686
(lp687
S'0'
aS'0'
aS'1'
aS'0'
aS'0'
asS'NC_000913'
p688
(lp689
S'0'
aS'0'
aS'0'
aS'0'
aS'0'
asS'NC_002928'
p690
(lp691
S'2'
aS'0'
aS'2'
aS'1'
aS'1'
asS'NC_004463'
p692
(lp693
S'1'
aS'0'
aS'3'
aS'1'
aS'1'
assS'fecABCDE'
p694
(dp695
S'NC_002928'
p696
(lp697
S'0'
aS'1'
aS'2'
aS'0'
aS'0'
asS'NC_011833'
p698
(lp699
S'1'
aS'4'
aS'0'
aS'1'
aS'0'
asS'NC_003198'
p700
(lp701
S'0'
aS'0'
aS'2'
aS'0'
aS'0'
asS'NC_005090'
p702
(lp703
S'0'
aS'1'
aS'2'
aS'1'
aS'1'
asS'NC_002696'
p704
(lp705
S'1'
aS'1'
aS'2'
aS'1'
aS'1'
asS'NC_003197'
p706
(lp707
S'1'
aS'0'
aS'2'
aS'0'
aS'1'
asS'NC_002516'
p708
(lp709
S'1'
aS'1'
aS'2'
aS'1'
aS'1'
asS'NC_004459'
p710
(lp711
S'0'
aS'1'
aS'2'
aS'0'
aS'1'
asS'NC_012668'
p712
(lp713
S'2'
aS'0'
aS'1'
aS'3'
aS'0'
asS'NC_000913'
p714
(lp715
S'0'
aS'0'
aS'0'
aS'0'
aS'0'
asS'NC_012441'
p716
(lp717
S'0'
aS'1'
aS'2'
aS'1'
aS'0'
asS'NC_007086'
p718
(lp719
S'1'
aS'3'
aS'1'
aS'0'
aS'0'
asS'NC_004917'
p720
(lp721
S'1'
aS'3'
aS'1'
aS'1'
aS'1'
asS'NC_000907'
p722
(lp723
S'0'
aS'1'
aS'2'
aS'0'
aS'0'
asS'NC_002163'
p724
(lp725
S'0'
aS'0'
aS'1'
aS'2'
aS'0'
asS'NC_003295'
p726
(lp727
S'0'
aS'0'
aS'2'
aS'1'
aS'1'
asS'NC_002929'
p728
(lp729
S'1'
aS'1'
aS'2'
aS'0'
aS'1'
asS'NC_004741'
p730
(lp731
S'3'
aS'0'
aS'2'
aS'0'
aS'1'
asS'NC_004603'
p732
(lp733
S'0'
aS'1'
aS'2'
aS'1'
aS'1'
asS'NC_004757'
p734
(lp735
S'1'
aS'3'
aS'1'
aS'0'
aS'0'
asS'NC_003919'
p736
(lp737
S'2'
aS'3'
aS'1'
aS'1'
aS'1'
asS'NC_002678'
p738
(lp739
S'0'
aS'1'
aS'2'
aS'0'
aS'1'
asS'NC_002947'
p740
(lp741
S'2'
aS'0'
aS'2'
aS'0'
aS'0'
asS'NC_003143'
p742
(lp743
S'2'
aS'0'
aS'1'
aS'2'
aS'1'
asS'NC_005085'
p744
(lp745
S'0'
aS'0'
aS'2'
aS'0'
aS'1'
asS'NC_002663'
p746
(lp747
S'0'
aS'0'
aS'1'
aS'0'
aS'1'
asS'NC_003047'
p748
(lp749
S'0'
aS'1'
aS'2'
aS'1'
aS'0'
asS'NC_002927'
p750
(lp751
S'1'
aS'1'
aS'2'
aS'0'
aS'1'
asS'NC_004347'
p752
(lp753
S'0'
aS'1'
aS'2'
aS'0'
aS'0'
asS'NC_002488'
p754
(lp755
S'0'
aS'3'
aS'0'
aS'0'
aS'0'
asS'NC_004578'
p756
(lp757
S'1'
aS'0'
aS'1'
aS'1'
aS'1'
asS'NC_004310'
p758
(lp759
S'0'
aS'1'
aS'2'
aS'1'
aS'0'
asS'NC_004463'
p760
(lp761
S'0'
aS'1'
aS'2'
aS'1'
aS'1'
asS'NC_003062'
p762
(lp763
S'0'
aS'0'
aS'1'
aS'2'
aS'0'
assS'yiaKLMNO-lyxK-sgbHUE'
p764
(dp765
S'NC_003198'
p766
(lp767
S'0'
aS'1'
aS'2'
aS'0'
aS'0'
asS'NC_005090'
p768
(lp769
S'0'
aS'5'
aS'1'
aS'1'
aS'0'
asS'NC_002696'
p770
(lp771
S'0'
aS'5'
aS'2'
aS'0'
aS'0'
asS'NC_003197'
p772
(lp773
S'0'
aS'0'
aS'1'
aS'0'
aS'1'
asS'NC_002516'
p774
(lp775
S'0'
aS'3'
aS'3'
aS'1'
aS'0'
asS'NC_012668'
p776
(lp777
S'0'
aS'5'
aS'1'
aS'1'
aS'0'
asS'NC_000913'
p778
(lp779
S'0'
aS'0'
aS'0'
aS'0'
aS'0'
asS'NC_004741'
p780
(lp781
S'1'
aS'0'
aS'5'
aS'1'
aS'3'
asS'NC_004917'
p782
(lp783
S'0'
aS'6'
aS'0'
aS'1'
aS'0'
asS'NC_012441'
p784
(lp785
S'0'
aS'6'
aS'1'
aS'0'
aS'1'
asS'NC_002928'
p786
(lp787
S'0'
aS'3'
aS'3'
aS'0'
aS'1'
asS'NC_002929'
p788
(lp789
S'1'
aS'3'
aS'3'
aS'0'
aS'2'
asS'NC_000907'
p790
(lp791
S'0'
aS'0'
aS'1'
aS'2'
aS'0'
asS'NC_004603'
p792
(lp793
S'0'
aS'5'
aS'1'
aS'1'
aS'0'
asS'NC_005085'
p794
(lp795
S'0'
aS'5'
aS'1'
aS'1'
aS'1'
asS'NC_003062'
p796
(lp797
S'0'
aS'4'
aS'2'
aS'0'
aS'0'
asS'NC_002947'
p798
(lp799
S'0'
aS'4'
aS'2'
aS'1'
aS'0'
asS'NC_003143'
p800
(lp801
S'0'
aS'3'
aS'4'
aS'0'
aS'2'
asS'NC_003047'
p802
(lp803
S'1'
aS'3'
aS'4'
aS'1'
aS'1'
asS'NC_002663'
p804
(lp805
S'0'
aS'0'
aS'1'
aS'0'
aS'0'
asS'NC_002927'
p806
(lp807
S'1'
aS'3'
aS'3'
aS'1'
aS'1'
asS'NC_004459'
p808
(lp809
S'0'
aS'4'
aS'2'
aS'1'
aS'1'
asS'NC_004310'
p810
(lp811
S'0'
aS'6'
aS'1'
aS'0'
aS'1'
asS'NC_004463'
p812
(lp813
S'0'
aS'1'
aS'5'
aS'0'
aS'3'
assS'rplKAJL-rpoBC'
p814
(dp815
S'NC_002928'
p816
(lp817
S'0'
aS'0'
aS'0'
aS'0'
aS'0'
asS'NC_011833'
p818
(lp819
S'0'
aS'0'
aS'0'
aS'0'
aS'0'
asS'NC_003198'
p820
(lp821
S'0'
aS'0'
aS'0'
aS'0'
aS'0'
asS'NC_005090'
p822
(lp823
S'0'
aS'1'
aS'2'
aS'2'
aS'0'
asS'NC_002696'
p824
(lp825
S'0'
aS'0'
aS'2'
aS'0'
aS'1'
asS'NC_003197'
p826
(lp827
S'0'
aS'0'
aS'0'
aS'0'
aS'0'
asS'NC_002516'
p828
(lp829
S'0'
aS'0'
aS'0'
aS'0'
aS'0'
asS'NC_004459'
p830
(lp831
S'0'
aS'0'
aS'0'
aS'0'
aS'0'
asS'NC_012668'
p832
(lp833
S'0'
aS'0'
aS'0'
aS'0'
aS'0'
asS'NC_000913'
p834
(lp835
S'0'
aS'0'
aS'0'
aS'0'
aS'0'
asS'NC_004741'
p836
(lp837
S'0'
aS'0'
aS'0'
aS'0'
aS'0'
asS'NC_007086'
p838
(lp839
S'0'
aS'0'
aS'1'
aS'0'
aS'0'
asS'NC_004917'
p840
(lp841
S'0'
aS'0'
aS'1'
aS'0'
aS'0'
asS'NC_004603'
p842
(lp843
S'0'
aS'0'
aS'0'
aS'0'
aS'0'
asS'NC_012441'
p844
(lp845
S'0'
aS'0'
aS'0'
aS'0'
aS'0'
asS'NC_002163'
p846
(lp847
S'0'
aS'0'
aS'0'
aS'0'
aS'0'
asS'NC_003295'
p848
(lp849
S'0'
aS'0'
aS'0'
aS'0'
aS'0'
asS'NC_002929'
p850
(lp851
S'0'
aS'0'
aS'0'
aS'0'
aS'0'
asS'NC_000907'
p852
(lp853
S'0'
aS'0'
aS'1'
aS'0'
aS'1'
asS'NC_003112'
p854
(lp855
S'0'
aS'0'
aS'0'
aS'0'
aS'0'
asS'NC_004757'
p856
(lp857
S'0'
aS'0'
aS'0'
aS'0'
aS'0'
asS'NC_003919'
p858
(lp859
S'0'
aS'0'
aS'1'
aS'0'
aS'0'
asS'NC_002678'
p860
(lp861
S'0'
aS'0'
aS'0'
aS'0'
aS'0'
asS'NC_002947'
p862
(lp863
S'0'
aS'0'
aS'0'
aS'0'
aS'0'
asS'NC_003143'
p864
(lp865
S'0'
aS'0'
aS'0'
aS'0'
aS'0'
asS'NC_005085'
p866
(lp867
S'0'
aS'0'
aS'0'
aS'0'
aS'0'
asS'NC_002663'
p868
(lp869
S'0'
aS'0'
aS'1'
aS'0'
aS'0'
asS'NC_005061'
p870
(lp871
S'0'
aS'0'
aS'0'
aS'0'
aS'0'
asS'NC_003047'
p872
(lp873
S'0'
aS'0'
aS'0'
aS'0'
aS'0'
asS'NC_002927'
p874
(lp875
S'0'
aS'0'
aS'0'
aS'0'
aS'0'
asS'NC_004347'
p876
(lp877
S'0'
aS'0'
aS'0'
aS'0'
aS'0'
asS'NC_002488'
p878
(lp879
S'0'
aS'0'
aS'1'
aS'0'
aS'0'
asS'NC_004578'
p880
(lp881
S'0'
aS'0'
aS'0'
aS'0'
aS'0'
asS'NC_004310'
p882
(lp883
S'0'
aS'0'
aS'0'
aS'0'
aS'0'
asS'NC_004463'
p884
(lp885
S'0'
aS'0'
aS'1'
aS'0'
aS'0'
asS'NC_003062'
p886
(lp887
S'0'
aS'0'
aS'0'
aS'0'
aS'0'
assS'garPLRK-rnpB'
p888
(dp889
S'NC_004741'
p890
(lp891
S'0'
aS'1'
aS'2'
aS'0'
aS'0'
asS'NC_003198'
p892
(lp893
S'1'
aS'1'
aS'1'
aS'0'
aS'1'
asS'NC_003919'
p894
(lp895
S'0'
aS'1'
aS'2'
aS'0'
aS'1'
asS'NC_000913'
p896
(lp897
S'0'
aS'1'
aS'0'
aS'0'
aS'0'
asS'NC_003197'
p898
(lp899
S'1'
aS'1'
aS'1'
aS'0'
aS'1'
asS'NC_003143'
p900
(lp901
S'0'
aS'1'
aS'2'
aS'0'
aS'0'
asS'NC_007086'
p902
(lp903
S'0'
aS'1'
aS'2'
aS'0'
aS'0'
assS'casABCDE12'
p904
(dp905
S'NC_000913'
p906
(lp907
S'0'
aS'0'
aS'0'
aS'0'
aS'0'
asS'NC_003197'
p908
(lp909
S'0'
aS'1'
aS'1'
aS'0'
aS'0'
asS'NC_003198'
p910
(lp911
S'0'
aS'1'
aS'1'
aS'0'
aS'0'
assS'mdtABCD-baeSR'
p912
(dp913
S'NC_002928'
p914
(lp915
S'0'
aS'0'
aS'2'
aS'0'
aS'0'
asS'NC_003198'
p916
(lp917
S'0'
aS'0'
aS'0'
aS'0'
aS'0'
asS'NC_005090'
p918
(lp919
S'1'
aS'0'
aS'3'
aS'0'
aS'1'
asS'NC_002696'
p920
(lp921
S'1'
aS'0'
aS'3'
aS'0'
aS'1'
asS'NC_003197'
p922
(lp923
S'0'
aS'0'
aS'0'
aS'0'
aS'0'
asS'NC_002516'
p924
(lp925
S'0'
aS'0'
aS'2'
aS'0'
aS'1'
asS'NC_004459'
p926
(lp927
S'0'
aS'1'
aS'2'
aS'0'
aS'0'
asS'NC_012668'
p928
(lp929
S'1'
aS'0'
aS'3'
aS'0'
aS'1'
asS'NC_000913'
p930
(lp931
S'0'
aS'0'
aS'0'
aS'0'
aS'0'
asS'NC_004741'
p932
(lp933
S'0'
aS'0'
aS'1'
aS'0'
aS'1'
asS'NC_007086'
p934
(lp935
S'1'
aS'0'
aS'1'
aS'1'
aS'0'
asS'NC_004917'
p936
(lp937
S'0'
aS'0'
aS'3'
aS'0'
aS'0'
asS'NC_004603'
p938
(lp939
S'2'
aS'0'
aS'3'
aS'1'
aS'1'
asS'NC_012441'
p940
(lp941
S'3'
aS'0'
aS'3'
aS'0'
aS'2'
asS'NC_002163'
p942
(lp943
S'0'
aS'1'
aS'2'
aS'0'
aS'0'
asS'NC_003295'
p944
(lp945
S'1'
aS'0'
aS'3'
aS'1'
aS'0'
asS'NC_002929'
p946
(lp947
S'1'
aS'0'
aS'2'
aS'0'
aS'1'
asS'NC_000907'
p948
(lp949
S'1'
aS'0'
aS'3'
aS'0'
aS'2'
asS'NC_003112'
p950
(lp951
S'0'
aS'0'
aS'3'
aS'0'
aS'1'
asS'NC_004757'
p952
(lp953
S'0'
aS'0'
aS'2'
aS'1'
aS'1'
asS'NC_003919'
p954
(lp955
S'0'
aS'0'
aS'1'
aS'0'
aS'0'
asS'NC_002678'
p956
(lp957
S'2'
aS'0'
aS'2'
aS'1'
aS'0'
asS'NC_002947'
p958
(lp959
S'2'
aS'0'
aS'2'
aS'2'
aS'1'
asS'NC_003143'
p960
(lp961
S'0'
aS'0'
aS'1'
aS'0'
aS'1'
asS'NC_005085'
p962
(lp963
S'1'
aS'0'
aS'2'
aS'0'
aS'1'
asS'NC_002663'
p964
(lp965
S'0'
aS'0'
aS'4'
aS'0'
aS'1'
asS'NC_003047'
p966
(lp967
S'1'
aS'0'
aS'3'
aS'0'
aS'0'
asS'NC_002927'
p968
(lp969
S'1'
aS'0'
aS'2'
aS'0'
aS'0'
asS'NC_004347'
p970
(lp971
S'0'
aS'0'
aS'2'
aS'0'
aS'1'
asS'NC_002488'
p972
(lp973
S'0'
aS'0'
aS'2'
aS'0'
aS'1'
asS'NC_004578'
p974
(lp975
S'1'
aS'0'
aS'2'
aS'1'
aS'0'
asS'NC_004310'
p976
(lp977
S'3'
aS'0'
aS'3'
aS'0'
aS'2'
asS'NC_004463'
p978
(lp979
S'1'
aS'0'
aS'2'
aS'0'
aS'1'
asS'NC_003062'
p980
(lp981
S'1'
aS'0'
aS'3'
aS'0'
aS'1'
assS'rbsDACBKR'
p982
(dp983
S'NC_002928'
p984
(lp985
S'1'
aS'1'
aS'2'
aS'0'
aS'1'
asS'NC_011833'
p986
(lp987
S'1'
aS'5'
aS'0'
aS'1'
aS'0'
asS'NC_003198'
p988
(lp989
S'0'
aS'0'
aS'0'
aS'0'
aS'0'
asS'NC_005090'
p990
(lp991
S'1'
aS'4'
aS'1'
aS'1'
aS'1'
asS'NC_002696'
p992
(lp993
S'0'
aS'1'
aS'2'
aS'1'
aS'1'
asS'NC_003197'
p994
(lp995
S'0'
aS'0'
aS'0'
aS'0'
aS'0'
asS'NC_002516'
p996
(lp997
S'0'
aS'1'
aS'0'
aS'2'
aS'0'
asS'NC_012668'
p998
(lp999
S'0'
aS'2'
aS'2'
aS'0'
aS'0'
asS'NC_000913'
p1000
(lp1001
S'0'
aS'0'
aS'0'
aS'0'
aS'0'
asS'NC_012441'
p1002
(lp1003
S'0'
aS'1'
aS'2'
aS'0'
aS'1'
asS'NC_004917'
p1004
(lp1005
S'1'
aS'4'
aS'1'
aS'1'
aS'0'
asS'NC_000907'
p1006
(lp1007
S'0'
aS'0'
aS'0'
aS'0'
aS'0'
asS'NC_002163'
p1008
(lp1009
S'1'
aS'3'
aS'2'
aS'1'
aS'0'
asS'NC_003295'
p1010
(lp1011
S'0'
aS'1'
aS'0'
aS'2'
aS'0'
asS'NC_002929'
p1012
(lp1013
S'0'
aS'3'
aS'1'
aS'0'
aS'0'
asS'NC_004741'
p1014
(lp1015
S'0'
aS'0'
aS'3'
aS'1'
aS'0'
asS'NC_004603'
p1016
(lp1017
S'1'
aS'3'
aS'2'
aS'1'
aS'1'
asS'NC_003919'
p1018
(lp1019
S'1'
aS'2'
aS'3'
aS'1'
aS'2'
asS'NC_002678'
p1020
(lp1021
S'0'
aS'1'
aS'1'
aS'0'
aS'1'
asS'NC_002947'
p1022
(lp1023
S'0'
aS'0'
aS'0'
aS'3'
aS'0'
asS'NC_003143'
p1024
(lp1025
S'0'
aS'0'
aS'1'
aS'1'
aS'0'
asS'NC_005085'
p1026
(lp1027
S'0'
aS'0'
aS'0'
aS'2'
aS'0'
asS'NC_002663'
p1028
(lp1029
S'0'
aS'0'
aS'0'
aS'0'
aS'0'
asS'NC_003047'
p1030
(lp1031
S'0'
aS'1'
aS'2'
aS'1'
aS'1'
asS'NC_002927'
p1032
(lp1033
S'1'
aS'1'
aS'2'
aS'0'
aS'1'
asS'NC_004347'
p1034
(lp1035
S'1'
aS'2'
aS'3'
aS'1'
aS'2'
asS'NC_004459'
p1036
(lp1037
S'1'
aS'3'
aS'2'
aS'1'
aS'0'
asS'NC_004578'
p1038
(lp1039
S'0'
aS'0'
aS'0'
aS'3'
aS'0'
asS'NC_004310'
p1040
(lp1041
S'0'
aS'1'
aS'2'
aS'0'
aS'1'
asS'NC_004463'
p1042
(lp1043
S'2'
aS'1'
aS'2'
aS'1'
aS'1'
asS'NC_003062'
p1044
(lp1045
S'1'
aS'1'
aS'2'
aS'0'
aS'1'
assS'srlAEBD-gutM-srlR-gutQ'
p1046
(dp1047
S'NC_002929'
p1048
(lp1049
S'1'
aS'4'
aS'2'
aS'1'
aS'1'
asS'NC_004741'
p1050
(lp1051
S'0'
aS'1'
aS'0'
aS'0'
aS'0'
asS'NC_003198'
p1052
(lp1053
S'0'
aS'0'
aS'0'
aS'0'
aS'0'
asS'NC_003047'
p1054
(lp1055
S'0'
aS'4'
aS'1'
aS'0'
aS'1'
asS'NC_002678'
p1056
(lp1057
S'0'
aS'1'
aS'2'
aS'0'
aS'0'
asS'NC_003197'
p1058
(lp1059
S'0'
aS'0'
aS'0'
aS'0'
aS'0'
asS'NC_002663'
p1060
(lp1061
S'0'
aS'0'
aS'2'
aS'0'
aS'0'
asS'NC_002927'
p1062
(lp1063
S'1'
aS'4'
aS'2'
aS'1'
aS'1'
asS'NC_004578'
p1064
(lp1065
S'0'
aS'4'
aS'1'
aS'0'
aS'1'
asS'NC_002947'
p1066
(lp1067
S'1'
aS'4'
aS'2'
aS'1'
aS'1'
asS'NC_000913'
p1068
(lp1069
S'0'
aS'0'
aS'0'
aS'0'
aS'0'
asS'NC_004463'
p1070
(lp1071
S'1'
aS'4'
aS'2'
aS'1'
aS'1'
assS'hyaABCDEF'
p1072
(dp1073
S'NC_004917'
p1074
(lp1075
S'0'
aS'2'
aS'0'
aS'0'
aS'0'
asS'NC_004347'
p1076
(lp1077
S'0'
aS'2'
aS'0'
aS'0'
aS'0'
asS'NC_004741'
p1078
(lp1079
S'0'
aS'0'
aS'0'
aS'0'
aS'0'
asS'NC_003198'
p1080
(lp1081
S'0'
aS'0'
aS'1'
aS'0'
aS'0'
asS'NC_005090'
p1082
(lp1083
S'0'
aS'2'
aS'0'
aS'0'
aS'0'
asS'NC_000913'
p1084
(lp1085
S'0'
aS'0'
aS'0'
aS'0'
aS'0'
asS'NC_003197'
p1086
(lp1087
S'0'
aS'0'
aS'0'
aS'0'
aS'0'
asS'NC_004463'
p1088
(lp1089
S'1'
aS'1'
aS'1'
aS'1'
aS'0'
asS'NC_002163'
p1090
(lp1091
S'0'
aS'2'
aS'0'
aS'0'
aS'0'
assS'pstSCAB-phoU'
p1092
(dp1093
S'NC_002928'
p1094
(lp1095
S'0'
aS'0'
aS'1'
aS'0'
aS'0'
asS'NC_011833'
p1096
(lp1097
S'1'
aS'4'
aS'0'
aS'1'
aS'0'
asS'NC_003198'
p1098
(lp1099
S'0'
aS'0'
aS'0'
aS'0'
aS'0'
asS'NC_005090'
p1100
(lp1101
S'0'
aS'1'
aS'0'
aS'1'
aS'0'
asS'NC_002696'
p1102
(lp1103
S'0'
aS'1'
aS'0'
aS'0'
aS'0'
asS'NC_003197'
p1104
(lp1105
S'0'
aS'0'
aS'0'
aS'0'
aS'0'
asS'NC_002516'
p1106
(lp1107
S'0'
aS'1'
aS'0'
aS'0'
aS'0'
asS'NC_012668'
p1108
(lp1109
S'0'
aS'1'
aS'0'
aS'0'
aS'0'
asS'NC_012441'
p1110
(lp1111
S'0'
aS'1'
aS'0'
aS'0'
aS'0'
asS'NC_007086'
p1112
(lp1113
S'1'
aS'0'
aS'0'
aS'2'
aS'0'
asS'NC_000913'
p1114
(lp1115
S'0'
aS'0'
aS'0'
aS'0'
aS'0'
asS'NC_004603'
p1116
(lp1117
S'0'
aS'1'
aS'0'
aS'0'
aS'0'
asS'NC_000907'
p1118
(lp1119
S'1'
aS'1'
aS'1'
aS'1'
aS'1'
asS'NC_002163'
p1120
(lp1121
S'0'
aS'2'
aS'0'
aS'0'
aS'0'
asS'NC_003295'
p1122
(lp1123
S'0'
aS'0'
aS'0'
aS'0'
aS'0'
asS'NC_002929'
p1124
(lp1125
S'0'
aS'0'
aS'1'
aS'0'
aS'0'
asS'NC_004741'
p1126
(lp1127
S'0'
aS'0'
aS'0'
aS'0'
aS'0'
asS'NC_003112'
p1128
(lp1129
S'0'
aS'2'
aS'0'
aS'0'
aS'0'
asS'NC_004757'
p1130
(lp1131
S'0'
aS'1'
aS'1'
aS'1'
aS'1'
asS'NC_005085'
p1132
(lp1133
S'0'
aS'0'
aS'1'
aS'0'
aS'1'
asS'NC_002678'
p1134
(lp1135
S'0'
aS'0'
aS'0'
aS'0'
aS'0'
asS'NC_002947'
p1136
(lp1137
S'3'
aS'0'
aS'1'
aS'0'
aS'1'
asS'NC_003143'
p1138
(lp1139
S'0'
aS'0'
aS'0'
aS'0'
aS'0'
asS'NC_002488'
p1140
(lp1141
S'0'
aS'0'
aS'0'
aS'0'
aS'0'
asS'NC_002663'
p1142
(lp1143
S'0'
aS'1'
aS'0'
aS'0'
aS'0'
asS'NC_003047'
p1144
(lp1145
S'0'
aS'1'
aS'0'
aS'0'
aS'0'
asS'NC_002927'
p1146
(lp1147
S'0'
aS'0'
aS'1'
aS'0'
aS'1'
asS'NC_004347'
p1148
(lp1149
S'3'
aS'0'
aS'1'
aS'1'
aS'1'
asS'NC_004459'
p1150
(lp1151
S'0'
aS'1'
aS'0'
aS'0'
aS'0'
asS'NC_004578'
p1152
(lp1153
S'3'
aS'0'
aS'1'
aS'0'
aS'0'
asS'NC_003919'
p1154
(lp1155
S'1'
aS'0'
aS'0'
aS'0'
aS'0'
asS'NC_004310'
p1156
(lp1157
S'0'
aS'1'
aS'0'
aS'0'
aS'0'
asS'NC_004463'
p1158
(lp1159
S'0'
aS'0'
aS'0'
aS'0'
aS'0'
asS'NC_003062'
p1160
(lp1161
S'0'
aS'1'
aS'0'
aS'0'
aS'0'
assS'dicB-ydfDE-insD-intQ'
p1162
(dp1163
S'NC_000913'
p1164
(lp1165
S'0'
aS'0'
aS'0'
aS'0'
aS'0'
asS'NC_004741'
p1166
(lp1167
S'1'
aS'2'
aS'2'
aS'1'
aS'1'
assS'caiTABCDE'
p1168
(dp1169
S'NC_002928'
p1170
(lp1171
S'1'
aS'0'
aS'3'
aS'0'
aS'1'
asS'NC_003198'
p1172
(lp1173
S'0'
aS'0'
aS'0'
aS'0'
aS'0'
asS'NC_002696'
p1174
(lp1175
S'1'
aS'1'
aS'3'
aS'1'
aS'0'
asS'NC_003197'
p1176
(lp1177
S'0'
aS'0'
aS'0'
aS'0'
aS'0'
asS'NC_002516'
p1178
(lp1179
S'1'
aS'0'
aS'3'
aS'0'
aS'1'
asS'NC_000913'
p1180
(lp1181
S'0'
aS'0'
aS'0'
aS'0'
aS'0'
asS'NC_003047'
p1182
(lp1183
S'0'
aS'2'
aS'2'
aS'0'
aS'1'
asS'NC_004917'
p1184
(lp1185
S'1'
aS'4'
aS'1'
aS'1'
aS'1'
asS'NC_012441'
p1186
(lp1187
S'1'
aS'1'
aS'3'
aS'0'
aS'0'
asS'NC_003295'
p1188
(lp1189
S'2'
aS'1'
aS'4'
aS'2'
aS'1'
asS'NC_002929'
p1190
(lp1191
S'1'
aS'0'
aS'3'
aS'0'
aS'1'
asS'NC_004741'
p1192
(lp1193
S'0'
aS'0'
aS'0'
aS'0'
aS'0'
asS'NC_003112'
p1194
(lp1195
S'0'
aS'3'
aS'1'
aS'0'
aS'0'
asS'NC_004757'
p1196
(lp1197
S'0'
aS'3'
aS'1'
aS'0'
aS'0'
asS'NC_003919'
p1198
(lp1199
S'1'
aS'1'
aS'3'
aS'1'
aS'2'
asS'NC_002678'
p1200
(lp1201
S'0'
aS'1'
aS'2'
aS'1'
aS'0'
asS'NC_002947'
p1202
(lp1203
S'1'
aS'0'
aS'3'
aS'0'
aS'1'
asS'NC_005085'
p1204
(lp1205
S'2'
aS'0'
aS'4'
aS'1'
aS'1'
asS'NC_003062'
p1206
(lp1207
S'0'
aS'1'
aS'3'
aS'0'
aS'1'
asS'NC_007086'
p1208
(lp1209
S'0'
aS'1'
aS'3'
aS'0'
aS'1'
asS'NC_002927'
p1210
(lp1211
S'1'
aS'0'
aS'3'
aS'0'
aS'1'
asS'NC_004347'
p1212
(lp1213
S'0'
aS'2'
aS'2'
aS'0'
aS'1'
asS'NC_004578'
p1214
(lp1215
S'2'
aS'0'
aS'4'
aS'1'
aS'2'
asS'NC_004310'
p1216
(lp1217
S'2'
aS'1'
aS'3'
aS'0'
aS'0'
asS'NC_004463'
p1218
(lp1219
S'0'
aS'1'
aS'2'
aS'0'
aS'1'
assS'sdhCDAB-sucABCD'
p1220
(dp1221
S'NC_002928'
p1222
(lp1223
S'0'
aS'0'
aS'2'
aS'0'
aS'1'
asS'NC_011833'
p1224
(lp1225
S'0'
aS'6'
aS'0'
aS'0'
aS'0'
asS'NC_003198'
p1226
(lp1227
S'0'
aS'0'
aS'1'
aS'0'
aS'0'
asS'NC_005090'
p1228
(lp1229
S'0'
aS'4'
aS'1'
aS'0'
aS'1'
asS'NC_002696'
p1230
(lp1231
S'0'
aS'1'
aS'1'
aS'2'
aS'1'
asS'NC_003197'
p1232
(lp1233
S'0'
aS'0'
aS'1'
aS'0'
aS'0'
asS'NC_002516'
p1234
(lp1235
S'0'
aS'0'
aS'1'
aS'0'
aS'0'
asS'NC_004459'
p1236
(lp1237
S'0'
aS'0'
aS'0'
aS'0'
aS'0'
asS'NC_012668'
p1238
(lp1239
S'0'
aS'0'
aS'0'
aS'0'
aS'0'
asS'NC_000913'
p1240
(lp1241
S'0'
aS'0'
aS'0'
aS'0'
aS'0'
asS'NC_004741'
p1242
(lp1243
S'1'
aS'0'
aS'0'
aS'2'
aS'0'
asS'NC_007086'
p1244
(lp1245
S'0'
aS'1'
aS'2'
aS'0'
aS'0'
asS'NC_004917'
p1246
(lp1247
S'0'
aS'6'
aS'0'
aS'0'
aS'0'
asS'NC_004603'
p1248
(lp1249
S'0'
aS'0'
aS'0'
aS'0'
aS'0'
asS'NC_012441'
p1250
(lp1251
S'0'
aS'1'
aS'1'
aS'0'
aS'0'
asS'NC_002163'
p1252
(lp1253
S'0'
aS'4'
aS'1'
aS'0'
aS'0'
asS'NC_003295'
p1254
(lp1255
S'0'
aS'0'
aS'2'
aS'0'
aS'1'
asS'NC_002929'
p1256
(lp1257
S'0'
aS'0'
aS'2'
aS'0'
aS'1'
asS'NC_000907'
p1258
(lp1259
S'0'
aS'2'
aS'2'
aS'0'
aS'1'
asS'NC_003112'
p1260
(lp1261
S'0'
aS'0'
aS'2'
aS'0'
aS'0'
asS'NC_004757'
p1262
(lp1263
S'0'
aS'0'
aS'3'
aS'0'
aS'0'
asS'NC_003919'
p1264
(lp1265
S'0'
aS'1'
aS'2'
aS'0'
aS'1'
asS'NC_002678'
p1266
(lp1267
S'0'
aS'1'
aS'2'
aS'0'
aS'1'
asS'NC_002947'
p1268
(lp1269
S'0'
aS'0'
aS'1'
aS'0'
aS'0'
asS'NC_003143'
p1270
(lp1271
S'0'
aS'0'
aS'0'
aS'0'
aS'0'
asS'NC_005085'
p1272
(lp1273
S'0'
aS'0'
aS'2'
aS'0'
aS'0'
asS'NC_002663'
p1274
(lp1275
S'0'
aS'2'
aS'2'
aS'0'
aS'1'
asS'NC_005061'
p1276
(lp1277
S'0'
aS'0'
aS'0'
aS'0'
aS'0'
asS'NC_003047'
p1278
(lp1279
S'0'
aS'1'
aS'1'
aS'0'
aS'0'
asS'NC_002927'
p1280
(lp1281
S'0'
aS'0'
aS'2'
aS'0'
aS'1'
asS'NC_004347'
p1282
(lp1283
S'0'
aS'0'
aS'0'
aS'0'
aS'0'
asS'NC_002488'
p1284
(lp1285
S'0'
aS'1'
aS'2'
aS'0'
aS'1'
asS'NC_004578'
p1286
(lp1287
S'0'
aS'0'
aS'1'
aS'0'
aS'0'
asS'NC_004310'
p1288
(lp1289
S'0'
aS'1'
aS'1'
aS'0'
aS'0'
asS'NC_004463'
p1290
(lp1291
S'0'
aS'1'
aS'2'
aS'1'
aS'1'
asS'NC_003062'
p1292
(lp1293
S'0'
aS'1'
aS'1'
aS'2'
aS'0'
assS'glcDEFGBA'
p1294
(dp1295
S'NC_003295'
p1296
(lp1297
S'0'
aS'1'
aS'2'
aS'0'
aS'1'
asS'NC_002928'
p1298
(lp1299
S'1'
aS'0'
aS'3'
aS'2'
aS'2'
asS'NC_004741'
p1300
(lp1301
S'1'
aS'1'
aS'2'
aS'1'
aS'0'
asS'NC_002929'
p1302
(lp1303
S'1'
aS'1'
aS'2'
aS'2'
aS'0'
asS'NC_004757'
p1304
(lp1305
S'0'
aS'3'
aS'0'
aS'0'
aS'0'
asS'NC_005085'
p1306
(lp1307
S'0'
aS'3'
aS'1'
aS'0'
aS'1'
asS'NC_002678'
p1308
(lp1309
S'0'
aS'2'
aS'2'
aS'0'
aS'0'
asS'NC_002947'
p1310
(lp1311
S'0'
aS'0'
aS'2'
aS'0'
aS'1'
asS'NC_002516'
p1312
(lp1313
S'0'
aS'0'
aS'2'
aS'0'
aS'1'
asS'NC_002663'
p1314
(lp1315
S'1'
aS'3'
aS'1'
aS'1'
aS'0'
asS'NC_003047'
p1316
(lp1317
S'0'
aS'2'
aS'1'
aS'0'
aS'0'
asS'NC_002927'
p1318
(lp1319
S'1'
aS'0'
aS'3'
aS'2'
aS'2'
asS'NC_004347'
p1320
(lp1321
S'0'
aS'2'
aS'1'
aS'0'
aS'1'
asS'NC_004578'
p1322
(lp1323
S'0'
aS'2'
aS'1'
aS'0'
aS'0'
asS'NC_004917'
p1324
(lp1325
S'0'
aS'2'
aS'2'
aS'0'
aS'0'
asS'NC_004463'
p1326
(lp1327
S'0'
aS'0'
aS'4'
aS'2'
aS'1'
asS'NC_003062'
p1328
(lp1329
S'0'
aS'2'
aS'1'
aS'0'
aS'0'
asS'NC_000913'
p1330
(lp1331
S'0'
aS'0'
aS'0'
aS'0'
aS'0'
asS'NC_002163'
p1332
(lp1333
S'0'
aS'2'
aS'2'
aS'0'
aS'0'
assS'ydhYVWXUT'
p1334
(dp1335
S'NC_005090'
p1336
(lp1337
S'0'
aS'3'
aS'1'
aS'0'
aS'1'
asS'NC_004741'
p1338
(lp1339
S'0'
aS'1'
aS'1'
aS'0'
aS'0'
asS'NC_003198'
p1340
(lp1341
S'0'
aS'3'
aS'1'
aS'0'
aS'1'
asS'NC_000913'
p1342
(lp1343
S'0'
aS'0'
aS'0'
aS'0'
aS'0'
asS'NC_003197'
p1344
(lp1345
S'0'
aS'3'
aS'1'
aS'0'
aS'1'
asS'NC_003143'
p1346
(lp1347
S'1'
aS'4'
aS'1'
aS'1'
aS'1'
assS'gatYZABCD'
p1348
(dp1349
S'NC_000913'
p1350
(lp1351
S'0'
aS'0'
aS'0'
aS'0'
aS'0'
asS'NC_003197'
p1352
(lp1353
S'0'
aS'0'
aS'1'
aS'0'
aS'0'
asS'NC_004741'
p1354
(lp1355
S'0'
aS'0'
aS'1'
aS'0'
aS'0'
asS'NC_003198'
p1356
(lp1357
S'0'
aS'1'
aS'1'
aS'0'
aS'0'
assS'astCADBE'
p1358
(dp1359
S'NC_003295'
p1360
(lp1361
S'0'
aS'3'
aS'0'
aS'0'
aS'0'
asS'NC_002929'
p1362
(lp1363
S'0'
aS'3'
aS'0'
aS'0'
aS'0'
asS'NC_004741'
p1364
(lp1365
S'0'
aS'1'
aS'2'
aS'0'
aS'0'
asS'NC_004603'
p1366
(lp1367
S'0'
aS'1'
aS'1'
aS'0'
aS'1'
asS'NC_003198'
p1368
(lp1369
S'0'
aS'0'
aS'0'
aS'0'
aS'0'
asS'NC_005085'
p1370
(lp1371
S'1'
aS'0'
aS'1'
aS'2'
aS'0'
asS'NC_002678'
p1372
(lp1373
S'0'
aS'3'
aS'0'
aS'0'
aS'0'
asS'NC_003197'
p1374
(lp1375
S'0'
aS'0'
aS'0'
aS'0'
aS'0'
asS'NC_003143'
p1376
(lp1377
S'0'
aS'0'
aS'0'
aS'0'
aS'0'
asS'NC_002516'
p1378
(lp1379
S'1'
aS'0'
aS'0'
aS'2'
aS'0'
asS'NC_012668'
p1380
(lp1381
S'0'
aS'1'
aS'1'
aS'0'
aS'1'
asS'NC_002928'
p1382
(lp1383
S'0'
aS'3'
aS'0'
aS'0'
aS'0'
asS'NC_004347'
p1384
(lp1385
S'0'
aS'0'
aS'2'
aS'0'
aS'0'
asS'NC_004459'
p1386
(lp1387
S'0'
aS'1'
aS'1'
aS'0'
aS'1'
asS'NC_004578'
p1388
(lp1389
S'1'
aS'0'
aS'0'
aS'2'
aS'0'
asS'NC_002947'
p1390
(lp1391
S'1'
aS'0'
aS'0'
aS'2'
aS'0'
asS'NC_000913'
p1392
(lp1393
S'0'
aS'0'
aS'0'
aS'0'
aS'0'
asS'NC_002696'
p1394
(lp1395
S'0'
aS'1'
aS'0'
aS'1'
aS'0'
asS'NC_002927'
p1396
(lp1397
S'0'
aS'3'
aS'0'
aS'0'
aS'0'
assS'hycABCDEFGHI'
p1398
(dp1399
S'NC_002928'
p1400
(lp1401
S'1'
aS'3'
aS'3'
aS'1'
aS'0'
asS'NC_011833'
p1402
(lp1403
S'0'
aS'3'
aS'3'
aS'1'
aS'0'
asS'NC_003198'
p1404
(lp1405
S'0'
aS'0'
aS'0'
aS'0'
aS'0'
asS'NC_005090'
p1406
(lp1407
S'1'
aS'2'
aS'1'
aS'0'
aS'0'
asS'NC_002696'
p1408
(lp1409
S'2'
aS'4'
aS'2'
aS'1'
aS'0'
asS'NC_003197'
p1410
(lp1411
S'0'
aS'0'
aS'0'
aS'0'
aS'0'
asS'NC_002516'
p1412
(lp1413
S'1'
aS'3'
aS'3'
aS'1'
aS'1'
asS'NC_000913'
p1414
(lp1415
S'0'
aS'0'
aS'0'
aS'0'
aS'0'
asS'NC_004917'
p1416
(lp1417
S'2'
aS'2'
aS'4'
aS'2'
aS'1'
asS'NC_012441'
p1418
(lp1419
S'2'
aS'4'
aS'2'
aS'2'
aS'0'
asS'NC_002163'
p1420
(lp1421
S'2'
aS'3'
aS'3'
aS'2'
aS'0'
asS'NC_003295'
p1422
(lp1423
S'2'
aS'3'
aS'3'
aS'2'
aS'0'
asS'NC_002929'
p1424
(lp1425
S'1'
aS'4'
aS'2'
aS'1'
aS'0'
asS'NC_004741'
p1426
(lp1427
S'1'
aS'0'
aS'2'
aS'0'
aS'1'
asS'NC_003112'
p1428
(lp1429
S'1'
aS'4'
aS'3'
aS'1'
aS'0'
asS'NC_004757'
p1430
(lp1431
S'1'
aS'4'
aS'3'
aS'1'
aS'0'
asS'NC_005085'
p1432
(lp1433
S'2'
aS'3'
aS'3'
aS'2'
aS'1'
asS'NC_002678'
p1434
(lp1435
S'2'
aS'3'
aS'3'
aS'2'
aS'0'
asS'NC_002947'
p1436
(lp1437
S'1'
aS'3'
aS'3'
aS'1'
aS'0'
asS'NC_003143'
p1438
(lp1439
S'2'
aS'3'
aS'3'
aS'2'
aS'1'
asS'NC_003047'
p1440
(lp1441
S'2'
aS'4'
aS'2'
aS'2'
aS'0'
asS'NC_003062'
p1442
(lp1443
S'2'
aS'4'
aS'2'
aS'1'
aS'0'
asS'NC_005061'
p1444
(lp1445
S'0'
aS'4'
aS'2'
aS'0'
aS'0'
asS'NC_007086'
p1446
(lp1447
S'1'
aS'4'
aS'3'
aS'1'
aS'0'
asS'NC_002927'
p1448
(lp1449
S'1'
aS'3'
aS'3'
aS'1'
aS'0'
asS'NC_004347'
p1450
(lp1451
S'1'
aS'3'
aS'3'
aS'1'
aS'1'
asS'NC_002488'
p1452
(lp1453
S'1'
aS'4'
aS'3'
aS'1'
aS'0'
asS'NC_004578'
p1454
(lp1455
S'1'
aS'4'
aS'2'
aS'1'
aS'0'
asS'NC_003919'
p1456
(lp1457
S'1'
aS'4'
aS'3'
aS'1'
aS'0'
asS'NC_004310'
p1458
(lp1459
S'2'
aS'4'
aS'2'
aS'2'
aS'0'
asS'NC_004463'
p1460
(lp1461
S'0'
aS'3'
aS'2'
aS'0'
aS'1'
assS'paaABCDEFGHIJK'
p1462
(dp1463
S'NC_002928'
p1464
(lp1465
S'1'
aS'0'
aS'3'
aS'0'
aS'1'
asS'NC_003198'
p1466
(lp1467
S'0'
aS'5'
aS'4'
aS'1'
aS'1'
asS'NC_002696'
p1468
(lp1469
S'0'
aS'6'
aS'3'
aS'0'
aS'2'
asS'NC_003197'
p1470
(lp1471
S'0'
aS'5'
aS'4'
aS'0'
aS'1'
asS'NC_002516'
p1472
(lp1473
S'0'
aS'4'
aS'3'
aS'0'
aS'1'
asS'NC_012668'
p1474
(lp1475
S'0'
aS'6'
aS'3'
aS'0'
aS'2'
asS'NC_000913'
p1476
(lp1477
S'0'
aS'0'
aS'0'
aS'0'
aS'0'
asS'NC_003295'
p1478
(lp1479
S'1'
aS'4'
aS'2'
aS'1'
aS'1'
asS'NC_002929'
p1480
(lp1481
S'1'
aS'0'
aS'4'
aS'0'
aS'2'
asS'NC_004741'
p1482
(lp1483
S'0'
aS'6'
aS'3'
aS'1'
aS'0'
asS'NC_004603'
p1484
(lp1485
S'0'
aS'5'
aS'4'
aS'0'
aS'1'
asS'NC_004757'
p1486
(lp1487
S'0'
aS'7'
aS'2'
aS'0'
aS'1'
asS'NC_003047'
p1488
(lp1489
S'0'
aS'5'
aS'4'
aS'0'
aS'2'
asS'NC_002678'
p1490
(lp1491
S'0'
aS'6'
aS'3'
aS'0'
aS'2'
asS'NC_002947'
p1492
(lp1493
S'0'
aS'0'
aS'0'
aS'10'
p1494
aS'0'
asS'NC_003143'
p1495
(lp1496
S'0'
aS'6'
aS'3'
aS'1'
aS'1'
asS'NC_005085'
p1497
(lp1498
S'0'
aS'4'
aS'4'
aS'0'
aS'1'
asS'NC_003062'
p1499
(lp1500
S'0'
aS'5'
aS'4'
aS'0'
aS'1'
asS'NC_007086'
p1501
(lp1502
S'0'
aS'6'
aS'2'
aS'0'
aS'1'
asS'NC_002927'
p1503
(lp1504
S'1'
aS'0'
aS'3'
aS'0'
aS'1'
asS'NC_004347'
p1505
(lp1506
S'1'
aS'5'
aS'4'
aS'0'
aS'2'
asS'NC_004459'
p1507
(lp1508
S'0'
aS'6'
aS'3'
aS'0'
aS'1'
asS'NC_004578'
p1509
(lp1510
S'0'
aS'5'
aS'4'
aS'0'
aS'1'
asS'NC_003919'
p1511
(lp1512
S'0'
aS'6'
aS'2'
aS'0'
aS'1'
asS'NC_004463'
p1513
(lp1514
S'1'
aS'0'
aS'3'
aS'0'
aS'0'
assS'rnc-era-recO-pdxJ-acpS'
p1515
(dp1516
S'NC_002928'
p1517
(lp1518
S'0'
aS'0'
aS'1'
aS'0'
aS'1'
asS'NC_011833'
p1519
(lp1520
S'0'
aS'2'
aS'0'
aS'0'
aS'0'
asS'NC_003198'
p1521
(lp1522
S'0'
aS'0'
aS'0'
aS'0'
aS'0'
asS'NC_002696'
p1523
(lp1524
S'0'
aS'0'
aS'3'
aS'0'
aS'0'
asS'NC_003197'
p1525
(lp1526
S'0'
aS'0'
aS'0'
aS'0'
aS'0'
asS'NC_002516'
p1527
(lp1528
S'0'
aS'1'
aS'0'
aS'0'
aS'0'
asS'NC_012668'
p1529
(lp1530
S'0'
aS'0'
aS'0'
aS'0'
aS'0'
asS'NC_004741'
p1531
(lp1532
S'0'
aS'0'
aS'0'
aS'0'
aS'0'
asS'NC_007086'
p1533
(lp1534
S'0'
aS'1'
aS'1'
aS'0'
aS'0'
asS'NC_000913'
p1535
(lp1536
S'0'
aS'0'
aS'0'
aS'0'
aS'0'
asS'NC_004603'
p1537
(lp1538
S'0'
aS'0'
aS'0'
aS'0'
aS'0'
asS'NC_012441'
p1539
(lp1540
S'0'
aS'0'
aS'2'
aS'0'
aS'1'
asS'NC_003295'
p1541
(lp1542
S'0'
aS'0'
aS'0'
aS'0'
aS'0'
asS'NC_002929'
p1543
(lp1544
S'0'
aS'0'
aS'1'
aS'0'
aS'1'
asS'NC_000907'
p1545
(lp1546
S'0'
aS'2'
aS'1'
aS'0'
aS'1'
asS'NC_003112'
p1547
(lp1548
S'0'
aS'0'
aS'2'
aS'0'
aS'0'
asS'NC_004757'
p1549
(lp1550
S'0'
aS'1'
aS'0'
aS'0'
aS'0'
asS'NC_005085'
p1551
(lp1552
S'0'
aS'0'
aS'1'
aS'0'
aS'0'
asS'NC_002678'
p1553
(lp1554
S'0'
aS'0'
aS'3'
aS'0'
aS'1'
asS'NC_002947'
p1555
(lp1556
S'0'
aS'1'
aS'0'
aS'0'
aS'0'
asS'NC_003143'
p1557
(lp1558
S'0'
aS'0'
aS'1'
aS'0'
aS'1'
asS'NC_002488'
p1559
(lp1560
S'0'
aS'1'
aS'1'
aS'0'
aS'0'
asS'NC_002663'
p1561
(lp1562
S'0'
aS'2'
aS'1'
aS'0'
aS'0'
asS'NC_005061'
p1563
(lp1564
S'0'
aS'1'
aS'1'
aS'0'
aS'0'
asS'NC_003047'
p1565
(lp1566
S'0'
aS'0'
aS'3'
aS'0'
aS'1'
asS'NC_002927'
p1567
(lp1568
S'0'
aS'0'
aS'1'
aS'0'
aS'0'
asS'NC_004347'
p1569
(lp1570
S'0'
aS'0'
aS'0'
aS'0'
aS'0'
asS'NC_004459'
p1571
(lp1572
S'0'
aS'0'
aS'0'
aS'0'
aS'0'
asS'NC_004578'
p1573
(lp1574
S'0'
aS'1'
aS'0'
aS'0'
aS'0'
asS'NC_003919'
p1575
(lp1576
S'0'
aS'1'
aS'1'
aS'0'
aS'1'
asS'NC_004310'
p1577
(lp1578
S'0'
aS'0'
aS'2'
aS'0'
aS'1'
asS'NC_004463'
p1579
(lp1580
S'0'
aS'0'
aS'2'
aS'0'
aS'0'
asS'NC_003062'
p1581
(lp1582
S'0'
aS'1'
aS'2'
aS'0'
aS'1'
assS'atpIBEFHAGDC'
p1583
(dp1584
S'NC_002928'
p1585
(lp1586
S'0'
aS'1'
aS'0'
aS'0'
aS'0'
asS'NC_011833'
p1587
(lp1588
S'0'
aS'1'
aS'0'
aS'0'
aS'0'
asS'NC_003198'
p1589
(lp1590
S'0'
aS'0'
aS'0'
aS'0'
aS'0'
asS'NC_005090'
p1591
(lp1592
S'0'
aS'4'
aS'1'
aS'0'
aS'0'
asS'NC_002696'
p1593
(lp1594
S'0'
aS'3'
aS'1'
aS'0'
aS'0'
asS'NC_003197'
p1595
(lp1596
S'0'
aS'0'
aS'0'
aS'0'
aS'0'
asS'NC_002516'
p1597
(lp1598
S'0'
aS'1'
aS'0'
aS'0'
aS'0'
asS'NC_004459'
p1599
(lp1600
S'0'
aS'0'
aS'0'
aS'0'
aS'0'
asS'NC_012668'
p1601
(lp1602
S'0'
aS'1'
aS'0'
aS'0'
aS'0'
asS'NC_000913'
p1603
(lp1604
S'0'
aS'0'
aS'0'
aS'0'
aS'0'
asS'NC_004741'
p1605
(lp1606
S'0'
aS'0'
aS'0'
aS'0'
aS'0'
asS'NC_007086'
p1607
(lp1608
S'0'
aS'1'
aS'0'
aS'0'
aS'0'
asS'NC_004917'
p1609
(lp1610
S'0'
aS'4'
aS'1'
aS'0'
aS'0'
asS'NC_004603'
p1611
(lp1612
S'0'
aS'0'
aS'0'
aS'0'
aS'0'
asS'NC_012441'
p1613
(lp1614
S'0'
aS'3'
aS'1'
aS'0'
aS'1'
asS'NC_002163'
p1615
(lp1616
S'0'
aS'4'
aS'1'
aS'0'
aS'1'
asS'NC_003295'
p1617
(lp1618
S'0'
aS'1'
aS'0'
aS'0'
aS'0'
asS'NC_002929'
p1619
(lp1620
S'0'
aS'1'
aS'0'
aS'0'
aS'0'
asS'NC_000907'
p1621
(lp1622
S'0'
aS'1'
aS'0'
aS'0'
aS'0'
asS'NC_003112'
p1623
(lp1624
S'0'
aS'1'
aS'0'
aS'0'
aS'0'
asS'NC_004757'
p1625
(lp1626
S'0'
aS'1'
aS'0'
aS'0'
aS'0'
asS'NC_003919'
p1627
(lp1628
S'0'
aS'1'
aS'0'
aS'0'
aS'0'
asS'NC_002678'
p1629
(lp1630
S'0'
aS'4'
aS'1'
aS'0'
aS'1'
asS'NC_002947'
p1631
(lp1632
S'0'
aS'1'
aS'0'
aS'0'
aS'0'
asS'NC_003143'
p1633
(lp1634
S'0'
aS'0'
aS'0'
aS'0'
aS'0'
asS'NC_005085'
p1635
(lp1636
S'0'
aS'1'
aS'0'
aS'0'
aS'0'
asS'NC_002663'
p1637
(lp1638
S'0'
aS'1'
aS'0'
aS'0'
aS'0'
asS'NC_005061'
p1639
(lp1640
S'0'
aS'1'
aS'0'
aS'0'
aS'0'
asS'NC_003047'
p1641
(lp1642
S'0'
aS'4'
aS'1'
aS'0'
aS'1'
asS'NC_002927'
p1643
(lp1644
S'0'
aS'1'
aS'0'
aS'0'
aS'0'
asS'NC_004347'
p1645
(lp1646
S'0'
aS'0'
aS'0'
aS'0'
aS'0'
asS'NC_002488'
p1647
(lp1648
S'0'
aS'1'
aS'0'
aS'0'
aS'0'
asS'NC_004578'
p1649
(lp1650
S'0'
aS'1'
aS'0'
aS'0'
aS'0'
asS'NC_004310'
p1651
(lp1652
S'0'
aS'3'
aS'1'
aS'0'
aS'1'
asS'NC_004463'
p1653
(lp1654
S'0'
aS'3'
aS'1'
aS'0'
aS'0'
asS'NC_003062'
p1655
(lp1656
S'0'
aS'4'
aS'1'
aS'0'
aS'1'
assS'ivbL-ilvBN-uhpABC'
p1657
(dp1658
S'NC_002928'
p1659
(lp1660
S'0'
aS'0'
aS'3'
aS'0'
aS'2'
asS'NC_011833'
p1661
(lp1662
S'0'
aS'3'
aS'0'
aS'0'
aS'0'
asS'NC_003198'
p1663
(lp1664
S'1'
aS'0'
aS'1'
aS'2'
aS'0'
asS'NC_005090'
p1665
(lp1666
S'0'
aS'2'
aS'1'
aS'0'
aS'0'
asS'NC_002696'
p1667
(lp1668
S'1'
aS'1'
aS'2'
aS'1'
aS'1'
asS'NC_003197'
p1669
(lp1670
S'1'
aS'0'
aS'1'
aS'2'
aS'1'
asS'NC_002516'
p1671
(lp1672
S'0'
aS'0'
aS'1'
aS'0'
aS'1'
asS'NC_004459'
p1673
(lp1674
S'0'
aS'1'
aS'1'
aS'0'
aS'1'
asS'NC_012668'
p1675
(lp1676
S'0'
aS'1'
aS'1'
aS'0'
aS'1'
asS'NC_000913'
p1677
(lp1678
S'1'
aS'-1'
p1679
aS'0'
aS'2'
aS'0'
asS'NC_004741'
p1680
(lp1681
S'1'
aS'-1'
p1682
aS'0'
aS'2'
aS'0'
asS'NC_007086'
p1683
(lp1684
S'0'
aS'1'
aS'2'
aS'0'
aS'1'
asS'NC_004917'
p1685
(lp1686
S'0'
aS'1'
aS'2'
aS'0'
aS'0'
asS'NC_012441'
p1687
(lp1688
S'0'
aS'1'
aS'2'
aS'0'
aS'1'
asS'NC_003295'
p1689
(lp1690
S'0'
aS'0'
aS'2'
aS'0'
aS'1'
asS'NC_002929'
p1691
(lp1692
S'0'
aS'2'
aS'1'
aS'0'
aS'1'
asS'NC_000907'
p1693
(lp1694
S'0'
aS'1'
aS'2'
aS'0'
aS'1'
asS'NC_004603'
p1695
(lp1696
S'0'
aS'0'
aS'2'
aS'0'
aS'1'
asS'NC_004757'
p1697
(lp1698
S'0'
aS'1'
aS'2'
aS'0'
aS'1'
asS'NC_003919'
p1699
(lp1700
S'0'
aS'1'
aS'2'
aS'0'
aS'0'
asS'NC_002678'
p1701
(lp1702
S'0'
aS'2'
aS'1'
aS'0'
aS'0'
asS'NC_002947'
p1703
(lp1704
S'0'
aS'0'
aS'2'
aS'0'
aS'1'
asS'NC_003143'
p1705
(lp1706
S'0'
aS'0'
aS'3'
aS'0'
aS'1'
asS'NC_005085'
p1707
(lp1708
S'0'
aS'1'
aS'2'
aS'0'
aS'0'
asS'NC_002663'
p1709
(lp1710
S'1'
aS'0'
aS'1'
aS'1'
aS'0'
asS'NC_003047'
p1711
(lp1712
S'0'
aS'2'
aS'1'
aS'0'
aS'0'
asS'NC_002927'
p1713
(lp1714
S'0'
aS'0'
aS'3'
aS'0'
aS'1'
asS'NC_004347'
p1715
(lp1716
S'0'
aS'1'
aS'1'
aS'0'
aS'0'
asS'NC_002488'
p1717
(lp1718
S'1'
aS'3'
aS'1'
aS'1'
aS'1'
asS'NC_004578'
p1719
(lp1720
S'0'
aS'0'
aS'2'
aS'0'
aS'0'
asS'NC_004463'
p1721
(lp1722
S'1'
aS'0'
aS'3'
aS'1'
aS'2'
asS'NC_003062'
p1723
(lp1724
S'0'
aS'1'
aS'2'
aS'0'
aS'1'
assS'bamA-hlpA-lpxD-fabZ-lpxAB-rnhB-dnaE'
p1725
(dp1726
S'NC_002928'
p1727
(lp1728
S'0'
aS'0'
aS'1'
aS'0'
aS'0'
asS'NC_011833'
p1729
(lp1730
S'0'
aS'4'
aS'1'
aS'0'
aS'1'
asS'NC_003198'
p1731
(lp1732
S'0'
aS'0'
aS'0'
aS'0'
aS'0'
asS'NC_005090'
p1733
(lp1734
S'0'
aS'1'
aS'5'
aS'0'
aS'3'
asS'NC_002696'
p1735
(lp1736
S'0'
aS'1'
aS'4'
aS'0'
aS'0'
asS'NC_003197'
p1737
(lp1738
S'0'
aS'0'
aS'0'
aS'0'
aS'0'
asS'NC_002516'
p1739
(lp1740
S'0'
aS'1'
aS'2'
aS'0'
aS'0'
asS'NC_004459'
p1741
(lp1742
S'0'
aS'0'
aS'0'
aS'0'
aS'0'
asS'NC_012668'
p1743
(lp1744
S'0'
aS'0'
aS'0'
aS'0'
aS'0'
asS'NC_000913'
p1745
(lp1746
S'0'
aS'0'
aS'0'
aS'0'
aS'0'
asS'NC_004741'
p1747
(lp1748
S'0'
aS'0'
aS'0'
aS'0'
aS'0'
asS'NC_007086'
p1749
(lp1750
S'0'
aS'1'
aS'0'
aS'0'
aS'0'
asS'NC_004917'
p1751
(lp1752
S'0'
aS'1'
aS'5'
aS'0'
aS'3'
asS'NC_004603'
p1753
(lp1754
S'0'
aS'0'
aS'0'
aS'0'
aS'0'
asS'NC_012441'
p1755
(lp1756
S'0'
aS'1'
aS'3'
aS'0'
aS'1'
asS'NC_002163'
p1757
(lp1758
S'0'
aS'1'
aS'5'
aS'0'
aS'3'
asS'NC_003295'
p1759
(lp1760
S'0'
aS'0'
aS'1'
aS'0'
aS'1'
asS'NC_002929'
p1761
(lp1762
S'0'
aS'0'
aS'1'
aS'0'
aS'1'
asS'NC_000907'
p1763
(lp1764
S'0'
aS'0'
aS'2'
aS'0'
aS'0'
asS'NC_003112'
p1765
(lp1766
S'0'
aS'0'
aS'3'
aS'0'
aS'2'
asS'NC_004757'
p1767
(lp1768
S'0'
aS'2'
aS'2'
aS'0'
aS'1'
asS'NC_003919'
p1769
(lp1770
S'0'
aS'1'
aS'0'
aS'0'
aS'0'
asS'NC_002678'
p1771
(lp1772
S'1'
aS'1'
aS'4'
aS'2'
aS'0'
asS'NC_002947'
p1773
(lp1774
S'0'
aS'1'
aS'1'
aS'0'
aS'0'
asS'NC_003143'
p1775
(lp1776
S'0'
aS'0'
aS'0'
aS'0'
aS'0'
asS'NC_005085'
p1777
(lp1778
S'0'
aS'0'
aS'1'
aS'0'
aS'1'
asS'NC_002663'
p1779
(lp1780
S'0'
aS'0'
aS'1'
aS'0'
aS'0'
asS'NC_005061'
p1781
(lp1782
S'0'
aS'0'
aS'0'
aS'0'
aS'0'
asS'NC_003047'
p1783
(lp1784
S'0'
aS'1'
aS'3'
aS'0'
aS'1'
asS'NC_002927'
p1785
(lp1786
S'0'
aS'0'
aS'1'
aS'0'
aS'1'
asS'NC_004347'
p1787
(lp1788
S'0'
aS'1'
aS'1'
aS'0'
aS'0'
asS'NC_002488'
p1789
(lp1790
S'0'
aS'1'
aS'1'
aS'0'
aS'0'
asS'NC_004578'
p1791
(lp1792
S'0'
aS'1'
aS'1'
aS'0'
aS'0'
asS'NC_004310'
p1793
(lp1794
S'0'
aS'1'
aS'3'
aS'0'
aS'1'
asS'NC_004463'
p1795
(lp1796
S'0'
aS'1'
aS'4'
aS'0'
aS'1'
asS'NC_003062'
p1797
(lp1798
S'0'
aS'1'
aS'3'
aS'0'
aS'1'
assS'gcl-hyi-glxR-ybbVW-allB-ybbY-glxK'
p1799
(dp1800
S'NC_003295'
p1801
(lp1802
S'0'
aS'3'
aS'2'
aS'0'
aS'0'
asS'NC_002928'
p1803
(lp1804
S'0'
aS'4'
aS'2'
aS'0'
aS'1'
asS'NC_004741'
p1805
(lp1806
S'0'
aS'4'
aS'1'
aS'0'
aS'1'
asS'NC_003198'
p1807
(lp1808
S'0'
aS'2'
aS'1'
aS'0'
aS'0'
asS'NC_002678'
p1809
(lp1810
S'0'
aS'3'
aS'2'
aS'0'
aS'0'
asS'NC_002947'
p1811
(lp1812
S'0'
aS'2'
aS'3'
aS'0'
aS'1'
asS'NC_002516'
p1813
(lp1814
S'0'
aS'2'
aS'3'
aS'0'
aS'2'
asS'NC_002927'
p1815
(lp1816
S'0'
aS'3'
aS'3'
aS'0'
aS'1'
asS'NC_003197'
p1817
(lp1818
S'1'
aS'1'
aS'1'
aS'1'
aS'0'
asS'NC_000913'
p1819
(lp1820
S'0'
aS'1'
aS'0'
aS'0'
aS'0'
asS'NC_004463'
p1821
(lp1822
S'0'
aS'4'
aS'1'
aS'0'
aS'1'
assS'hisLGDCBHAFI'
p1823
(dp1824
S'NC_002928'
p1825
(lp1826
S'1'
aS'0'
aS'0'
aS'2'
aS'0'
asS'NC_011833'
p1827
(lp1828
S'0'
aS'0'
aS'0'
aS'0'
aS'0'
asS'NC_003198'
p1829
(lp1830
S'0'
aS'0'
aS'0'
aS'0'
aS'0'
asS'NC_005090'
p1831
(lp1832
S'0'
aS'0'
aS'6'
aS'0'
aS'2'
asS'NC_002696'
p1833
(lp1834
S'0'
aS'0'
aS'3'
aS'0'
aS'1'
asS'NC_003197'
p1835
(lp1836
S'0'
aS'0'
aS'0'
aS'0'
aS'0'
asS'NC_002516'
p1837
(lp1838
S'1'
aS'0'
aS'2'
aS'1'
aS'1'
asS'NC_012668'
p1839
(lp1840
S'0'
aS'0'
aS'0'
aS'0'
aS'0'
asS'NC_004741'
p1841
(lp1842
S'0'
aS'0'
aS'0'
aS'0'
aS'0'
asS'NC_007086'
p1843
(lp1844
S'0'
aS'0'
aS'0'
aS'0'
aS'0'
asS'NC_000913'
p1845
(lp1846
S'0'
aS'0'
aS'0'
aS'0'
aS'0'
asS'NC_004603'
p1847
(lp1848
S'0'
aS'0'
aS'0'
aS'0'
aS'0'
asS'NC_012441'
p1849
(lp1850
S'0'
aS'1'
aS'3'
aS'0'
aS'1'
asS'NC_002163'
p1851
(lp1852
S'0'
aS'0'
aS'2'
aS'0'
aS'0'
asS'NC_003295'
p1853
(lp1854
S'1'
aS'1'
aS'1'
aS'2'
aS'0'
asS'NC_002929'
p1855
(lp1856
S'1'
aS'0'
aS'0'
aS'2'
aS'0'
asS'NC_000907'
p1857
(lp1858
S'0'
aS'0'
aS'0'
aS'0'
aS'0'
asS'NC_003112'
p1859
(lp1860
S'0'
aS'0'
aS'2'
aS'0'
aS'1'
asS'NC_004757'
p1861
(lp1862
S'1'
aS'0'
aS'1'
aS'2'
aS'1'
asS'NC_005085'
p1863
(lp1864
S'0'
aS'0'
aS'1'
aS'0'
aS'0'
asS'NC_002678'
p1865
(lp1866
S'0'
aS'1'
aS'3'
aS'0'
aS'2'
asS'NC_002947'
p1867
(lp1868
S'1'
aS'0'
aS'2'
aS'1'
aS'0'
asS'NC_003143'
p1869
(lp1870
S'0'
aS'0'
aS'0'
aS'0'
aS'0'
asS'NC_002488'
p1871
(lp1872
S'0'
aS'0'
aS'0'
aS'0'
aS'0'
asS'NC_002663'
p1873
(lp1874
S'0'
aS'0'
aS'2'
aS'0'
aS'0'
asS'NC_005061'
p1875
(lp1876
S'0'
aS'0'
aS'0'
aS'0'
aS'0'
asS'NC_003047'
p1877
(lp1878
S'0'
aS'1'
aS'2'
aS'0'
aS'1'
asS'NC_002927'
p1879
(lp1880
S'1'
aS'0'
aS'0'
aS'2'
aS'0'
asS'NC_004347'
p1881
(lp1882
S'0'
aS'0'
aS'0'
aS'0'
aS'0'
asS'NC_004459'
p1883
(lp1884
S'0'
aS'0'
aS'0'
aS'0'
aS'0'
asS'NC_004578'
p1885
(lp1886
S'1'
aS'0'
aS'2'
aS'1'
aS'1'
asS'NC_003919'
p1887
(lp1888
S'0'
aS'0'
aS'0'
aS'0'
aS'0'
asS'NC_004310'
p1889
(lp1890
S'0'
aS'1'
aS'3'
aS'0'
aS'1'
asS'NC_004463'
p1891
(lp1892
S'0'
aS'0'
aS'4'
aS'0'
aS'0'
asS'NC_003062'
p1893
(lp1894
S'0'
aS'1'
aS'3'
aS'0'
aS'0'
assS'fucPIKUR'
p1895
(dp1896
S'NC_004741'
p1897
(lp1898
S'0'
aS'0'
aS'2'
aS'0'
aS'0'
asS'NC_004603'
p1899
(lp1900
S'0'
aS'3'
aS'0'
aS'0'
aS'0'
asS'NC_003198'
p1901
(lp1902
S'0'
aS'0'
aS'0'
aS'0'
aS'0'
asS'NC_003047'
p1903
(lp1904
S'1'
aS'2'
aS'2'
aS'1'
aS'1'
asS'NC_002947'
p1905
(lp1906
S'0'
aS'3'
aS'0'
aS'0'
aS'0'
asS'NC_002516'
p1907
(lp1908
S'0'
aS'3'
aS'0'
aS'0'
aS'0'
asS'NC_004578'
p1909
(lp1910
S'0'
aS'3'
aS'0'
aS'0'
aS'0'
asS'NC_004459'
p1911
(lp1912
S'0'
aS'3'
aS'0'
aS'0'
aS'0'
asS'NC_003197'
p1913
(lp1914
S'0'
aS'0'
aS'1'
aS'0'
aS'1'
asS'NC_000913'
p1915
(lp1916
S'0'
aS'0'
aS'0'
aS'0'
aS'0'
asS'NC_000907'
p1917
(lp1918
S'0'
aS'0'
aS'1'
aS'0'
aS'0'
assS'trpLEDCBA'
p1919
(dp1920
S'NC_002928'
p1921
(lp1922
S'1'
aS'0'
aS'1'
aS'2'
aS'1'
asS'NC_011833'
p1923
(lp1924
S'0'
aS'2'
aS'1'
aS'0'
aS'0'
asS'NC_003198'
p1925
(lp1926
S'0'
aS'0'
aS'0'
aS'0'
aS'0'
asS'NC_002696'
p1927
(lp1928
S'2'
aS'0'
aS'1'
aS'1'
aS'1'
asS'NC_003197'
p1929
(lp1930
S'0'
aS'0'
aS'0'
aS'0'
aS'0'
asS'NC_002516'
p1931
(lp1932
S'2'
aS'0'
aS'2'
aS'1'
aS'1'
asS'NC_004459'
p1933
(lp1934
S'1'
aS'0'
aS'0'
aS'2'
aS'0'
asS'NC_012668'
p1935
(lp1936
S'1'
aS'0'
aS'0'
aS'2'
aS'0'
asS'NC_000913'
p1937
(lp1938
S'0'
aS'0'
aS'0'
aS'0'
aS'0'
asS'NC_004741'
p1939
(lp1940
S'0'
aS'0'
aS'0'
aS'0'
aS'0'
asS'NC_007086'
p1941
(lp1942
S'0'
aS'0'
aS'3'
aS'0'
aS'0'
asS'NC_004917'
p1943
(lp1944
S'0'
aS'1'
aS'1'
aS'0'
aS'0'
asS'NC_004603'
p1945
(lp1946
S'1'
aS'0'
aS'0'
aS'2'
aS'0'
asS'NC_012441'
p1947
(lp1948
S'1'
aS'0'
aS'2'
aS'0'
aS'1'
asS'NC_002163'
p1949
(lp1950
S'0'
aS'0'
aS'0'
aS'0'
aS'0'
asS'NC_003295'
p1951
(lp1952
S'2'
aS'0'
aS'2'
aS'0'
aS'1'
asS'NC_002929'
p1953
(lp1954
S'1'
aS'0'
aS'1'
aS'2'
aS'1'
asS'NC_000907'
p1955
(lp1956
S'1'
aS'0'
aS'1'
aS'0'
aS'0'
asS'NC_003112'
p1957
(lp1958
S'1'
aS'0'
aS'4'
aS'1'
aS'2'
asS'NC_004757'
p1959
(lp1960
S'2'
aS'0'
aS'2'
aS'1'
aS'1'
asS'NC_003919'
p1961
(lp1962
S'0'
aS'0'
aS'2'
aS'0'
aS'1'
asS'NC_002678'
p1963
(lp1964
S'1'
aS'0'
aS'2'
aS'0'
aS'0'
asS'NC_002947'
p1965
(lp1966
S'1'
aS'0'
aS'2'
aS'1'
aS'1'
asS'NC_003143'
p1967
(lp1968
S'1'
aS'0'
aS'0'
aS'2'
aS'0'
asS'NC_005085'
p1969
(lp1970
S'1'
aS'0'
aS'2'
aS'0'
aS'0'
asS'NC_002663'
p1971
(lp1972
S'1'
aS'0'
aS'2'
aS'0'
aS'0'
asS'NC_005061'
p1973
(lp1974
S'1'
aS'0'
aS'0'
aS'2'
aS'0'
asS'NC_003047'
p1975
(lp1976
S'1'
aS'0'
aS'2'
aS'0'
aS'1'
asS'NC_002927'
p1977
(lp1978
S'1'
aS'0'
aS'1'
aS'2'
aS'1'
asS'NC_004347'
p1979
(lp1980
S'1'
aS'0'
aS'0'
aS'2'
aS'0'
asS'NC_002488'
p1981
(lp1982
S'1'
aS'0'
aS'1'
aS'2'
aS'0'
asS'NC_004578'
p1983
(lp1984
S'1'
aS'0'
aS'2'
aS'1'
aS'0'
asS'NC_004310'
p1985
(lp1986
S'1'
aS'0'
aS'2'
aS'0'
aS'1'
asS'NC_004463'
p1987
(lp1988
S'0'
aS'0'
aS'1'
aS'0'
aS'1'
asS'NC_003062'
p1989
(lp1990
S'1'
aS'0'
aS'2'
aS'0'
aS'1'
assS'waaQGP-rfaS-waaBIJY-rfaZ-waaK'
p1991
(dp1992
S'NC_005090'
p1993
(lp1994
S'0'
aS'7'
aS'1'
aS'0'
aS'0'
asS'NC_002516'
p1995
(lp1996
S'0'
aS'6'
aS'1'
aS'0'
aS'0'
asS'NC_004603'
p1997
(lp1998
S'0'
aS'7'
aS'1'
aS'0'
aS'0'
asS'NC_003198'
p1999
(lp2000
S'0'
aS'2'
aS'1'
aS'0'
aS'0'
asS'NC_003047'
p2001
(lp2002
S'0'
aS'8'
aS'0'
aS'0'
aS'0'
asS'NC_003197'
p2003
(lp2004
S'0'
aS'2'
aS'0'
aS'0'
aS'0'
asS'NC_005085'
p2005
(lp2006
S'0'
aS'7'
aS'1'
aS'0'
aS'0'
asS'NC_002663'
p2007
(lp2008
S'0'
aS'5'
aS'3'
aS'1'
aS'2'
asS'NC_004347'
p2009
(lp2010
S'0'
aS'7'
aS'1'
aS'0'
aS'1'
asS'NC_004459'
p2011
(lp2012
S'0'
aS'7'
aS'1'
aS'0'
aS'0'
asS'NC_004578'
p2013
(lp2014
S'0'
aS'6'
aS'1'
aS'0'
aS'0'
asS'NC_002947'
p2015
(lp2016
S'1'
aS'6'
aS'1'
aS'2'
aS'0'
asS'NC_000913'
p2017
(lp2018
S'0'
aS'0'
aS'0'
aS'0'
aS'0'
asS'NC_004741'
p2019
(lp2020
S'1'
aS'4'
aS'0'
aS'2'
aS'0'
assS'livKHMGF'
p2021
(dp2022
S'NC_002928'
p2023
(lp2024
S'0'
aS'0'
aS'0'
aS'2'
aS'0'
asS'NC_011833'
p2025
(lp2026
S'1'
aS'3'
aS'1'
aS'1'
aS'1'
asS'NC_003198'
p2027
(lp2028
S'0'
aS'0'
aS'0'
aS'0'
aS'0'
asS'NC_005090'
p2029
(lp2030
S'0'
aS'0'
aS'0'
aS'0'
aS'0'
asS'NC_002696'
p2031
(lp2032
S'0'
aS'3'
aS'0'
aS'0'
aS'0'
asS'NC_003197'
p2033
(lp2034
S'0'
aS'0'
aS'0'
aS'0'
aS'0'
asS'NC_002516'
p2035
(lp2036
S'0'
aS'0'
aS'0'
aS'0'
aS'0'
asS'NC_012668'
p2037
(lp2038
S'0'
aS'3'
aS'0'
aS'0'
aS'0'
asS'NC_000913'
p2039
(lp2040
S'0'
aS'0'
aS'0'
aS'0'
aS'0'
asS'NC_012441'
p2041
(lp2042
S'0'
aS'0'
aS'1'
aS'0'
aS'0'
asS'NC_004917'
p2043
(lp2044
S'0'
aS'3'
aS'0'
aS'0'
aS'0'
asS'NC_000907'
p2045
(lp2046
S'0'
aS'3'
aS'0'
aS'0'
aS'0'
asS'NC_002163'
p2047
(lp2048
S'1'
aS'0'
aS'0'
aS'2'
aS'0'
asS'NC_003295'
p2049
(lp2050
S'0'
aS'0'
aS'0'
aS'0'
aS'0'
asS'NC_002929'
p2051
(lp2052
S'0'
aS'0'
aS'0'
aS'0'
aS'0'
asS'NC_004741'
p2053
(lp2054
S'0'
aS'0'
aS'0'
aS'0'
aS'0'
asS'NC_004603'
p2055
(lp2056
S'0'
aS'3'
aS'0'
aS'0'
aS'0'
asS'NC_005085'
p2057
(lp2058
S'0'
aS'0'
aS'1'
aS'0'
aS'0'
asS'NC_002678'
p2059
(lp2060
S'3'
aS'0'
aS'1'
aS'2'
aS'0'
asS'NC_002947'
p2061
(lp2062
S'0'
aS'0'
aS'0'
aS'0'
aS'0'
asS'NC_003143'
p2063
(lp2064
S'0'
aS'0'
aS'0'
aS'0'
aS'0'
asS'NC_003047'
p2065
(lp2066
S'0'
aS'0'
aS'0'
aS'0'
aS'0'
asS'NC_002663'
p2067
(lp2068
S'0'
aS'3'
aS'0'
aS'0'
aS'0'
asS'NC_002927'
p2069
(lp2070
S'0'
aS'0'
aS'0'
aS'0'
aS'0'
asS'NC_004347'
p2071
(lp2072
S'0'
aS'3'
aS'0'
aS'0'
aS'0'
asS'NC_004459'
p2073
(lp2074
S'0'
aS'3'
aS'0'
aS'0'
aS'0'
asS'NC_004578'
p2075
(lp2076
S'0'
aS'0'
aS'0'
aS'0'
aS'0'
asS'NC_004310'
p2077
(lp2078
S'2'
aS'0'
aS'2'
aS'1'
aS'2'
asS'NC_004463'
p2079
(lp2080
S'0'
aS'0'
aS'0'
aS'0'
aS'0'
asS'NC_003062'
p2081
(lp2082
S'0'
aS'0'
aS'1'
aS'0'
aS'0'
assS'hypABCDE-fhlA'
p2083
(dp2084
S'NC_005090'
p2085
(lp2086
S'0'
aS'2'
aS'2'
aS'0'
aS'0'
asS'NC_004741'
p2087
(lp2088
S'0'
aS'0'
aS'0'
aS'0'
aS'0'
asS'NC_003198'
p2089
(lp2090
S'0'
aS'0'
aS'0'
aS'0'
aS'0'
asS'NC_004578'
p2091
(lp2092
S'1'
aS'4'
aS'1'
aS'1'
aS'1'
asS'NC_003197'
p2093
(lp2094
S'0'
aS'0'
aS'0'
aS'0'
aS'0'
asS'NC_002927'
p2095
(lp2096
S'1'
aS'4'
aS'1'
aS'0'
aS'0'
asS'NC_004347'
p2097
(lp2098
S'0'
aS'0'
aS'1'
aS'1'
aS'0'
asS'NC_004917'
p2099
(lp2100
S'0'
aS'0'
aS'4'
aS'0'
aS'2'
asS'NC_004463'
p2101
(lp2102
S'0'
aS'0'
aS'2'
aS'0'
aS'1'
asS'NC_000913'
p2103
(lp2104
S'0'
aS'0'
aS'0'
aS'0'
aS'0'
asS'NC_002163'
p2105
(lp2106
S'0'
aS'1'
aS'1'
aS'1'
aS'1'
assS'ybgIJKL-nei'
p2107
(dp2108
S'NC_003295'
p2109
(lp2110
S'0'
aS'1'
aS'1'
aS'0'
aS'0'
asS'NC_002928'
p2111
(lp2112
S'0'
aS'0'
aS'2'
aS'0'
aS'1'
asS'NC_002516'
p2113
(lp2114
S'0'
aS'1'
aS'1'
aS'1'
aS'0'
asS'NC_003198'
p2115
(lp2116
S'0'
aS'0'
aS'1'
aS'0'
aS'0'
asS'NC_002929'
p2117
(lp2118
S'0'
aS'1'
aS'2'
aS'0'
aS'1'
asS'NC_003197'
p2119
(lp2120
S'0'
aS'0'
aS'1'
aS'0'
aS'0'
asS'NC_003143'
p2121
(lp2122
S'0'
aS'2'
aS'1'
aS'0'
aS'0'
asS'NC_005085'
p2123
(lp2124
S'1'
aS'0'
aS'2'
aS'2'
aS'1'
asS'NC_002927'
p2125
(lp2126
S'0'
aS'0'
aS'2'
aS'0'
aS'1'
asS'NC_004578'
p2127
(lp2128
S'0'
aS'0'
aS'2'
aS'0'
aS'1'
asS'NC_004741'
p2129
(lp2130
S'0'
aS'1'
aS'1'
aS'0'
aS'0'
asS'NC_002947'
p2131
(lp2132
S'0'
aS'1'
aS'1'
aS'1'
aS'0'
asS'NC_000913'
p2133
(lp2134
S'0'
aS'0'
aS'0'
aS'0'
aS'0'
asS'NC_000907'
p2135
(lp2136
S'0'
aS'0'
aS'2'
aS'0'
aS'1'
asS'NC_004463'
p2137
(lp2138
S'0'
aS'1'
aS'1'
aS'0'
aS'0'
asS'NC_002163'
p2139
(lp2140
S'0'
aS'1'
aS'1'
aS'1'
aS'0'
assS'yjeFE-amiB-mutL-miaA-hfq-hflXKC'
p2141
(dp2142
S'NC_002928'
p2143
(lp2144
S'0'
aS'0'
aS'3'
aS'0'
aS'1'
asS'NC_011833'
p2145
(lp2146
S'0'
aS'3'
aS'2'
aS'0'
aS'1'
asS'NC_003198'
p2147
(lp2148
S'0'
aS'0'
aS'0'
aS'0'
aS'0'
asS'NC_002696'
p2149
(lp2150
S'0'
aS'1'
aS'6'
aS'0'
aS'3'
asS'NC_003197'
p2151
(lp2152
S'0'
aS'0'
aS'0'
aS'0'
aS'0'
asS'NC_002516'
p2153
(lp2154
S'0'
aS'0'
aS'0'
aS'0'
aS'0'
asS'NC_012668'
p2155
(lp2156
S'0'
aS'1'
aS'0'
aS'0'
aS'0'
asS'NC_004741'
p2157
(lp2158
S'0'
aS'0'
aS'0'
aS'0'
aS'0'
asS'NC_007086'
p2159
(lp2160
S'0'
aS'0'
aS'2'
aS'0'
aS'1'
asS'NC_000913'
p2161
(lp2162
S'0'
aS'0'
aS'0'
aS'0'
aS'0'
asS'NC_004603'
p2163
(lp2164
S'0'
aS'1'
aS'0'
aS'0'
aS'0'
asS'NC_012441'
p2165
(lp2166
S'0'
aS'1'
aS'5'
aS'0'
aS'3'
asS'NC_003295'
p2167
(lp2168
S'1'
aS'0'
aS'3'
aS'0'
aS'2'
asS'NC_002929'
p2169
(lp2170
S'0'
aS'0'
aS'3'
aS'0'
aS'0'
asS'NC_000907'
p2171
(lp2172
S'0'
aS'1'
aS'3'
aS'0'
aS'1'
asS'NC_003112'
p2173
(lp2174
S'0'
aS'1'
aS'6'
aS'0'
aS'3'
asS'NC_004757'
p2175
(lp2176
S'0'
aS'0'
aS'4'
aS'0'
aS'1'
asS'NC_005085'
p2177
(lp2178
S'1'
aS'0'
aS'4'
aS'1'
aS'2'
asS'NC_002678'
p2179
(lp2180
S'0'
aS'0'
aS'6'
aS'0'
aS'3'
asS'NC_002947'
p2181
(lp2182
S'0'
aS'0'
aS'0'
aS'0'
aS'0'
asS'NC_003143'
p2183
(lp2184
S'0'
aS'0'
aS'0'
aS'0'
aS'0'
asS'NC_002488'
p2185
(lp2186
S'0'
aS'0'
aS'2'
aS'0'
aS'1'
asS'NC_002663'
p2187
(lp2188
S'0'
aS'1'
aS'1'
aS'0'
aS'0'
asS'NC_005061'
p2189
(lp2190
S'0'
aS'3'
aS'0'
aS'0'
aS'0'
asS'NC_003047'
p2191
(lp2192
S'0'
aS'0'
aS'6'
aS'0'
aS'2'
asS'NC_002927'
p2193
(lp2194
S'0'
aS'0'
aS'3'
aS'0'
aS'1'
asS'NC_004347'
p2195
(lp2196
S'0'
aS'0'
aS'0'
aS'0'
aS'0'
asS'NC_004459'
p2197
(lp2198
S'0'
aS'1'
aS'0'
aS'0'
aS'0'
asS'NC_004578'
p2199
(lp2200
S'0'
aS'0'
aS'0'
aS'0'
aS'0'
asS'NC_003919'
p2201
(lp2202
S'0'
aS'0'
aS'2'
aS'0'
aS'1'
asS'NC_004310'
p2203
(lp2204
S'0'
aS'1'
aS'5'
aS'0'
aS'3'
asS'NC_004463'
p2205
(lp2206
S'0'
aS'0'
aS'6'
aS'0'
aS'3'
asS'NC_003062'
p2207
(lp2208
S'0'
aS'0'
aS'6'
aS'0'
aS'2'
assS'nsrR-rnr-rlmB-yjfIJ'
p2209
(dp2210
S'NC_002928'
p2211
(lp2212
S'0'
aS'2'
aS'1'
aS'0'
aS'0'
asS'NC_003198'
p2213
(lp2214
S'0'
aS'1'
aS'0'
aS'0'
aS'0'
asS'NC_002696'
p2215
(lp2216
S'0'
aS'0'
aS'3'
aS'0'
aS'2'
asS'NC_003197'
p2217
(lp2218
S'0'
aS'0'
aS'0'
aS'0'
aS'0'
asS'NC_002516'
p2219
(lp2220
S'0'
aS'0'
aS'2'
aS'0'
aS'1'
asS'NC_012668'
p2221
(lp2222
S'0'
aS'2'
aS'1'
aS'0'
aS'1'
asS'NC_000913'
p2223
(lp2224
S'0'
aS'0'
aS'0'
aS'0'
aS'0'
asS'NC_000907'
p2225
(lp2226
S'0'
aS'3'
aS'0'
aS'0'
aS'0'
asS'NC_003295'
p2227
(lp2228
S'0'
aS'2'
aS'1'
aS'0'
aS'1'
asS'NC_002929'
p2229
(lp2230
S'0'
aS'2'
aS'1'
aS'0'
aS'1'
asS'NC_004741'
p2231
(lp2232
S'0'
aS'2'
aS'0'
aS'0'
aS'0'
asS'NC_004603'
p2233
(lp2234
S'0'
aS'2'
aS'0'
aS'0'
aS'0'
asS'NC_004757'
p2235
(lp2236
S'0'
aS'2'
aS'1'
aS'0'
aS'0'
asS'NC_003919'
p2237
(lp2238
S'0'
aS'1'
aS'2'
aS'0'
aS'1'
asS'NC_002947'
p2239
(lp2240
S'0'
aS'2'
aS'1'
aS'0'
aS'1'
asS'NC_003143'
p2241
(lp2242
S'0'
aS'2'
aS'0'
aS'0'
aS'0'
asS'NC_002663'
p2243
(lp2244
S'0'
aS'3'
aS'0'
aS'0'
aS'0'
asS'NC_007086'
p2245
(lp2246
S'0'
aS'0'
aS'3'
aS'0'
aS'1'
asS'NC_002927'
p2247
(lp2248
S'0'
aS'2'
aS'1'
aS'0'
aS'1'
asS'NC_004347'
p2249
(lp2250
S'0'
aS'1'
aS'2'
aS'0'
aS'1'
asS'NC_004459'
p2251
(lp2252
S'0'
aS'2'
aS'1'
aS'0'
aS'0'
asS'NC_004578'
p2253
(lp2254
S'0'
aS'0'
aS'2'
aS'0'
aS'1'
assS'thrS-infC-rpmI-rplT-pheMST-ihfA'
p2255
(dp2256
S'NC_002928'
p2257
(lp2258
S'0'
aS'0'
aS'1'
aS'0'
aS'0'
asS'NC_011833'
p2259
(lp2260
S'0'
aS'0'
aS'0'
aS'0'
aS'0'
asS'NC_003198'
p2261
(lp2262
S'0'
aS'0'
aS'0'
aS'0'
aS'0'
asS'NC_005090'
p2263
(lp2264
S'0'
aS'1'
aS'2'
aS'0'
aS'0'
asS'NC_002696'
p2265
(lp2266
S'0'
aS'1'
aS'3'
aS'0'
aS'2'
asS'NC_003197'
p2267
(lp2268
S'0'
aS'0'
aS'0'
aS'0'
aS'0'
asS'NC_002516'
p2269
(lp2270
S'0'
aS'1'
aS'0'
aS'0'
aS'0'
asS'NC_004459'
p2271
(lp2272
S'0'
aS'0'
aS'2'
aS'0'
aS'0'
asS'NC_012668'
p2273
(lp2274
S'0'
aS'3'
aS'1'
aS'0'
aS'1'
asS'NC_000913'
p2275
(lp2276
S'0'
aS'0'
aS'0'
aS'0'
aS'0'
asS'NC_004741'
p2277
(lp2278
S'0'
aS'0'
aS'0'
aS'0'
aS'0'
asS'NC_007086'
p2279
(lp2280
S'0'
aS'0'
aS'0'
aS'0'
aS'0'
asS'NC_004917'
p2281
(lp2282
S'0'
aS'1'
aS'2'
aS'0'
aS'1'
asS'NC_004603'
p2283
(lp2284
S'0'
aS'1'
aS'3'
aS'0'
aS'0'
asS'NC_012441'
p2285
(lp2286
S'0'
aS'1'
aS'4'
aS'0'
aS'1'
asS'NC_002163'
p2287
(lp2288
S'0'
aS'1'
aS'3'
aS'0'
aS'2'
asS'NC_003295'
p2289
(lp2290
S'0'
aS'0'
aS'0'
aS'0'
aS'0'
asS'NC_002929'
p2291
(lp2292
S'0'
aS'0'
aS'1'
aS'0'
aS'1'
asS'NC_000907'
p2293
(lp2294
S'0'
aS'0'
aS'2'
aS'0'
aS'0'
asS'NC_003112'
p2295
(lp2296
S'0'
aS'0'
aS'1'
aS'0'
aS'0'
asS'NC_004757'
p2297
(lp2298
S'0'
aS'0'
aS'0'
aS'0'
aS'0'
asS'NC_003919'
p2299
(lp2300
S'0'
aS'0'
aS'0'
aS'0'
aS'0'
asS'NC_002678'
p2301
(lp2302
S'0'
aS'1'
aS'3'
aS'0'
aS'1'
asS'NC_002947'
p2303
(lp2304
S'0'
aS'1'
aS'0'
aS'0'
aS'0'
asS'NC_003143'
p2305
(lp2306
S'0'
aS'0'
aS'0'
aS'0'
aS'0'
asS'NC_005085'
p2307
(lp2308
S'0'
aS'0'
aS'0'
aS'0'
aS'0'
asS'NC_002663'
p2309
(lp2310
S'0'
aS'0'
aS'3'
aS'0'
aS'2'
asS'NC_005061'
p2311
(lp2312
S'0'
aS'1'
aS'0'
aS'0'
aS'0'
asS'NC_003047'
p2313
(lp2314
S'0'
aS'1'
aS'2'
aS'0'
aS'0'
asS'NC_002927'
p2315
(lp2316
S'0'
aS'0'
aS'1'
aS'0'
aS'0'
asS'NC_004347'
p2317
(lp2318
S'0'
aS'0'
aS'1'
aS'0'
aS'0'
asS'NC_002488'
p2319
(lp2320
S'0'
aS'0'
aS'0'
aS'0'
aS'0'
asS'NC_004578'
p2321
(lp2322
S'0'
aS'1'
aS'0'
aS'0'
aS'0'
asS'NC_004310'
p2323
(lp2324
S'0'
aS'1'
aS'4'
aS'0'
aS'1'
asS'NC_004463'
p2325
(lp2326
S'0'
aS'1'
aS'4'
aS'0'
aS'1'
asS'NC_003062'
p2327
(lp2328
S'0'
aS'1'
aS'3'
aS'0'
aS'1'
ass.